

Microchip MPLAB XC8 Assembler V3.00 build 20241204225717 
                                                                                               Wed Sep 17 15:04:41 2025

Microchip MPLAB XC8 C Compiler v3.00 (Free license) build 20241204225717 Og1 
     1                           	processor	16F886
     2                           	pagewidth 120
     3                           	opt	flic
     4                           	psect	idataCOMMON,global,class=CODE,space=0,delta=2,noexec
     5                           	psect	idataBANK1,global,class=CODE,space=0,delta=2,noexec
     6                           	psect	strings,global,class=STRING,space=0,delta=2,noexec
     7                           	psect	cinit,global,class=CODE,space=0,merge=1,delta=2
     8                           	psect	bssCOMMON,global,class=COMMON,space=1,delta=1,noexec
     9                           	psect	dataCOMMON,global,class=COMMON,space=1,delta=1,noexec
    10                           	psect	bssBANK0,global,class=BANK0,space=1,delta=1,noexec
    11                           	psect	bssBANK1,global,class=BANK1,space=1,delta=1,noexec
    12                           	psect	dataBANK1,global,class=BANK1,space=1,delta=1,noexec
    13                           	psect	bssBANK3,global,class=BANK3,space=1,delta=1,noexec
    14                           	psect	clrtext,global,class=CODE,space=0,delta=2
    15                           	psect	cstackBANK3,global,class=BANK3,space=1,delta=1,noexec
    16                           	psect	cstackBANK1,global,class=BANK1,space=1,delta=1,noexec
    17                           	psect	cstackCOMMON,global,class=COMMON,space=1,delta=1,noexec
    18                           	psect	cstackBANK0,global,class=BANK0,space=1,delta=1,noexec
    19                           	psect	maintext,global,class=CODE,space=0,split=1,delta=2
    20                           	psect	text1,local,class=CODE,space=0,merge=1,delta=2
    21                           	psect	text2,local,class=CODE,space=0,merge=1,delta=2
    22                           	psect	text3,local,class=CODE,space=0,merge=1,delta=2,group=3
    23                           	psect	text4,local,class=CODE,space=0,merge=1,delta=2,group=1
    24                           	psect	text5,local,class=CODE,space=0,merge=1,delta=2,group=1
    25                           	psect	text6,local,class=CODE,space=0,merge=1,delta=2,group=3
    26                           	psect	text7,local,class=CODE,space=0,merge=1,delta=2,group=3
    27                           	psect	text8,local,class=CODE,space=0,merge=1,delta=2,group=2
    28                           	psect	text9,local,class=CODE,space=0,merge=1,delta=2,group=2
    29                           	psect	text10,local,class=CODE,space=0,merge=1,delta=2
    30                           	psect	text11,local,class=CODE,space=0,merge=1,delta=2
    31                           	psect	text12,local,class=CODE,space=0,merge=1,inline,delta=2
    32                           	psect	text13,local,class=CODE,space=0,merge=1,delta=2
    33                           	psect	text14,local,class=CODE,space=0,merge=1,delta=2
    34                           	psect	text15,local,class=CODE,space=0,merge=1,delta=2,group=2
    35                           	psect	text16,local,class=CODE,space=0,merge=1,inline,delta=2
    36                           	psect	text17,local,class=CODE,space=0,merge=1,delta=2
    37                           	psect	text18,local,class=CODE,space=0,merge=1,inline,delta=2
    38                           	psect	text19,local,class=CODE,space=0,merge=1,inline,delta=2
    39                           	psect	text20,local,class=CODE,space=0,merge=1,delta=2
    40                           	psect	text21,local,class=CODE,space=0,merge=1,inline,delta=2
    41                           	psect	text22,local,class=CODE,space=0,merge=1,delta=2
    42                           	psect	text23,local,class=CODE,space=0,merge=1,delta=2,group=2
    43                           	psect	text24,local,class=CODE,space=0,merge=1,delta=2,group=2
    44                           	psect	text25,local,class=CODE,space=0,merge=1,delta=2
    45                           	psect	text26,local,class=CODE,space=0,merge=1,delta=2
    46                           	psect	text27,local,class=CODE,space=0,merge=1,delta=2
    47                           	psect	text28,local,class=CODE,space=0,merge=1,delta=2
    48                           	psect	text29,local,class=CODE,space=0,merge=1,delta=2
    49                           	psect	text30,local,class=CODE,space=0,merge=1,delta=2
    50                           	psect	text31,local,class=CODE,space=0,merge=1,delta=2
    51                           	psect	text32,local,class=CODE,space=0,merge=1,delta=2
    52                           	psect	text33,local,class=CODE,space=0,merge=1,delta=2
    53                           	psect	text34,local,class=CODE,space=0,merge=1,delta=2
    54                           	psect	text35,local,class=CODE,space=0,merge=1,inline,delta=2
    55                           	psect	text36,local,class=CODE,space=0,merge=1,inline,delta=2
    56                           	psect	text37,local,class=CODE,space=0,merge=1,inline,delta=2
    57                           	psect	text38,local,class=CODE,space=0,merge=1,inline,delta=2
    58                           	psect	text39,local,class=CODE,space=0,merge=1,delta=2
    59                           	psect	text40,local,class=CODE,space=0,merge=1,delta=2
    60                           	psect	text41,local,class=CODE,space=0,merge=1,delta=2
    61                           	psect	intentry,global,class=CODE,space=0,delta=2
    62                           	psect	config,global,abs,ovrld,class=CONFIG,space=4,delta=2,noexec
    63                           	dabs	1,0x7E,2
    64     0000                     
    65                           ; Generated 12/10/2023 GMT
    66                           ; 
    67                           ; Copyright © 2023, Microchip Technology Inc. and its subsidiaries ("Microchip")
    68                           ; All rights reserved.
    69                           ; 
    70                           ; This software is developed by Microchip Technology Inc. and its subsidiaries ("Microch
      +                          ip").
    71                           ; 
    72                           ; Redistribution and use in source and binary forms, with or without modification, are
    73                           ; permitted provided that the following conditions are met:
    74                           ; 
    75                           ;     1. Redistributions of source code must retain the above copyright notice, this lis
      +                          t of
    76                           ;        conditions and the following disclaimer.
    77                           ; 
    78                           ;     2. Redistributions in binary form must reproduce the above copyright notice, this 
      +                          list
    79                           ;        of conditions and the following disclaimer in the documentation and/or other
    80                           ;        materials provided with the distribution. Publication is not required when
    81                           ;        this file is used in an embedded application.
    82                           ; 
    83                           ;     3. Microchip's name may not be used to endorse or promote products derived from th
      +                          is
    84                           ;        software without specific prior written permission.
    85                           ; 
    86                           ; THIS SOFTWARE IS PROVIDED BY MICROCHIP "AS IS" AND ANY EXPRESS OR IMPLIED WARRANTIES,
    87                           ; INCLUDING, BUT NOT LIMITED TO, THE IMPLIED WARRANTIES OF MERCHANTABILITY AND FITNESS F
      +                          OR
    88                           ; PURPOSE ARE DISCLAIMED.  IN NO EVENT SHALL MICROCHIP BE LIABLE FOR ANY DIRECT, INDIREC
      +                          T,
    89                           ; INCIDENTAL, SPECIAL, EXEMPLARY, OR CONSEQUENTIAL DAMAGES (INCLUDING BUT NOT LIMITED TO
    90                           ; PROCUREMENT OF SUBSTITUTE GOODS OR SERVICES; LOSS OF USE, DATA OR PROFITS; OR BUSINESS
    91                           ; INTERRUPTION) HOWSOEVER CAUSED AND ON ANY THEORY OF LIABILITY, WHETHER IN CONTRACT, ST
      +                          RICT
    92                           ; LIABILITY, OR TORT (INCLUDING NEGLIGENCE OR OTHERWISE) ARISING IN ANY WAY OUT OF THE U
      +                          SE OF
    93                           ; THIS SOFTWARE, EVEN IF ADVISED OF THE POSSIBILITY OF SUCH DAMAGE.
    94                           ; 
    95                           ; 
    96                           ; Code-generator required, PIC16F886 Definitions
    97                           ; 
    98                           ; SFR Addresses
    99     0004                     fsr             equ	4
   100     0004                     fsr0            equ	4
   101     0000                     indf            equ	0
   102     0000                     indf0           equ	0
   103     0002                     pc              equ	2
   104     0002                     pcl             equ	2
   105     000A                     pclath          equ	10
   106     0003                     status          equ	3
   107     0000                     INDF            equ	0	;# 
   108     0001                     TMR0            equ	1	;# 
   109     0002                     PCL             equ	2	;# 
   110     0003                     STATUS          equ	3	;# 
   111     0004                     FSR             equ	4	;# 
   112     0005                     PORTA           equ	5	;# 
   113     0006                     PORTB           equ	6	;# 
   114     0007                     PORTC           equ	7	;# 
   115     0009                     PORTE           equ	9	;# 
   116     000A                     PCLATH          equ	10	;# 
   117     000B                     INTCON          equ	11	;# 
   118     000C                     PIR1            equ	12	;# 
   119     000D                     PIR2            equ	13	;# 
   120     000E                     TMR1            equ	14	;# 
   121     000E                     TMR1L           equ	14	;# 
   122     000F                     TMR1H           equ	15	;# 
   123     0010                     T1CON           equ	16	;# 
   124     0011                     TMR2            equ	17	;# 
   125     0012                     T2CON           equ	18	;# 
   126     0013                     SSPBUF          equ	19	;# 
   127     0014                     SSPCON          equ	20	;# 
   128     0015                     CCPR1           equ	21	;# 
   129     0015                     CCPR1L          equ	21	;# 
   130     0016                     CCPR1H          equ	22	;# 
   131     0017                     CCP1CON         equ	23	;# 
   132     0018                     RCSTA           equ	24	;# 
   133     0019                     TXREG           equ	25	;# 
   134     001A                     RCREG           equ	26	;# 
   135     001B                     CCPR2           equ	27	;# 
   136     001B                     CCPR2L          equ	27	;# 
   137     001C                     CCPR2H          equ	28	;# 
   138     001D                     CCP2CON         equ	29	;# 
   139     001E                     ADRESH          equ	30	;# 
   140     001F                     ADCON0          equ	31	;# 
   141     0081                     OPTION_REG      equ	129	;# 
   142     0085                     TRISA           equ	133	;# 
   143     0086                     TRISB           equ	134	;# 
   144     0087                     TRISC           equ	135	;# 
   145     0089                     TRISE           equ	137	;# 
   146     008C                     PIE1            equ	140	;# 
   147     008D                     PIE2            equ	141	;# 
   148     008E                     PCON            equ	142	;# 
   149     008F                     OSCCON          equ	143	;# 
   150     0090                     OSCTUNE         equ	144	;# 
   151     0091                     SSPCON2         equ	145	;# 
   152     0092                     PR2             equ	146	;# 
   153     0093                     SSPADD          equ	147	;# 
   154     0093                     SSPMSK          equ	147	;# 
   155     0093                     MSK             equ	147	;# 
   156     0094                     SSPSTAT         equ	148	;# 
   157     0095                     WPUB            equ	149	;# 
   158     0096                     IOCB            equ	150	;# 
   159     0097                     VRCON           equ	151	;# 
   160     0098                     TXSTA           equ	152	;# 
   161     0099                     SPBRG           equ	153	;# 
   162     009A                     SPBRGH          equ	154	;# 
   163     009B                     PWM1CON         equ	155	;# 
   164     009C                     ECCPAS          equ	156	;# 
   165     009D                     PSTRCON         equ	157	;# 
   166     009E                     ADRESL          equ	158	;# 
   167     009F                     ADCON1          equ	159	;# 
   168     0105                     WDTCON          equ	261	;# 
   169     0107                     CM1CON0         equ	263	;# 
   170     0108                     CM2CON0         equ	264	;# 
   171     0109                     CM2CON1         equ	265	;# 
   172     010C                     EEDATA          equ	268	;# 
   173     010C                     EEDAT           equ	268	;# 
   174     010D                     EEADR           equ	269	;# 
   175     010E                     EEDATH          equ	270	;# 
   176     010F                     EEADRH          equ	271	;# 
   177     0185                     SRCON           equ	389	;# 
   178     0187                     BAUDCTL         equ	391	;# 
   179     0188                     ANSEL           equ	392	;# 
   180     0189                     ANSELH          equ	393	;# 
   181     018C                     EECON1          equ	396	;# 
   182     018D                     EECON2          equ	397	;# 
   183     0000                     INDF            equ	0	;# 
   184     0001                     TMR0            equ	1	;# 
   185     0002                     PCL             equ	2	;# 
   186     0003                     STATUS          equ	3	;# 
   187     0004                     FSR             equ	4	;# 
   188     0005                     PORTA           equ	5	;# 
   189     0006                     PORTB           equ	6	;# 
   190     0007                     PORTC           equ	7	;# 
   191     0009                     PORTE           equ	9	;# 
   192     000A                     PCLATH          equ	10	;# 
   193     000B                     INTCON          equ	11	;# 
   194     000C                     PIR1            equ	12	;# 
   195     000D                     PIR2            equ	13	;# 
   196     000E                     TMR1            equ	14	;# 
   197     000E                     TMR1L           equ	14	;# 
   198     000F                     TMR1H           equ	15	;# 
   199     0010                     T1CON           equ	16	;# 
   200     0011                     TMR2            equ	17	;# 
   201     0012                     T2CON           equ	18	;# 
   202     0013                     SSPBUF          equ	19	;# 
   203     0014                     SSPCON          equ	20	;# 
   204     0015                     CCPR1           equ	21	;# 
   205     0015                     CCPR1L          equ	21	;# 
   206     0016                     CCPR1H          equ	22	;# 
   207     0017                     CCP1CON         equ	23	;# 
   208     0018                     RCSTA           equ	24	;# 
   209     0019                     TXREG           equ	25	;# 
   210     001A                     RCREG           equ	26	;# 
   211     001B                     CCPR2           equ	27	;# 
   212     001B                     CCPR2L          equ	27	;# 
   213     001C                     CCPR2H          equ	28	;# 
   214     001D                     CCP2CON         equ	29	;# 
   215     001E                     ADRESH          equ	30	;# 
   216     001F                     ADCON0          equ	31	;# 
   217     0081                     OPTION_REG      equ	129	;# 
   218     0085                     TRISA           equ	133	;# 
   219     0086                     TRISB           equ	134	;# 
   220     0087                     TRISC           equ	135	;# 
   221     0089                     TRISE           equ	137	;# 
   222     008C                     PIE1            equ	140	;# 
   223     008D                     PIE2            equ	141	;# 
   224     008E                     PCON            equ	142	;# 
   225     008F                     OSCCON          equ	143	;# 
   226     0090                     OSCTUNE         equ	144	;# 
   227     0091                     SSPCON2         equ	145	;# 
   228     0092                     PR2             equ	146	;# 
   229     0093                     SSPADD          equ	147	;# 
   230     0093                     SSPMSK          equ	147	;# 
   231     0093                     MSK             equ	147	;# 
   232     0094                     SSPSTAT         equ	148	;# 
   233     0095                     WPUB            equ	149	;# 
   234     0096                     IOCB            equ	150	;# 
   235     0097                     VRCON           equ	151	;# 
   236     0098                     TXSTA           equ	152	;# 
   237     0099                     SPBRG           equ	153	;# 
   238     009A                     SPBRGH          equ	154	;# 
   239     009B                     PWM1CON         equ	155	;# 
   240     009C                     ECCPAS          equ	156	;# 
   241     009D                     PSTRCON         equ	157	;# 
   242     009E                     ADRESL          equ	158	;# 
   243     009F                     ADCON1          equ	159	;# 
   244     0105                     WDTCON          equ	261	;# 
   245     0107                     CM1CON0         equ	263	;# 
   246     0108                     CM2CON0         equ	264	;# 
   247     0109                     CM2CON1         equ	265	;# 
   248     010C                     EEDATA          equ	268	;# 
   249     010C                     EEDAT           equ	268	;# 
   250     010D                     EEADR           equ	269	;# 
   251     010E                     EEDATH          equ	270	;# 
   252     010F                     EEADRH          equ	271	;# 
   253     0185                     SRCON           equ	389	;# 
   254     0187                     BAUDCTL         equ	391	;# 
   255     0188                     ANSEL           equ	392	;# 
   256     0189                     ANSELH          equ	393	;# 
   257     018C                     EECON1          equ	396	;# 
   258     018D                     EECON2          equ	397	;# 
   259                           
   260                           	psect	idataCOMMON
   261     07FE                     __pidataCOMMON:
   262                           
   263                           ;initializer for _BackLight_State
   264     07FE  3408               	retlw	8
   265                           
   266                           	psect	idataBANK1
   267     09D1                     __pidataBANK1:
   268                           
   269                           ;initializer for _first_beat
   270     09D1  3401               	retlw	1
   271                           
   272                           ;initializer for _DHB
   273     09D2  3401               	retlw	1
   274                           
   275                           ;initializer for _Seat
   276     09D3  3401               	retlw	1
   277     001A                     _RCREG          set	26
   278     000C                     _PIR1bits       set	12
   279     001E                     _ADRESH         set	30
   280     001F                     _ADCON0         set	31
   281     0013                     _SSPBUF         set	19
   282     0014                     _SSPCON         set	20
   283     0019                     _TXREG          set	25
   284     000B                     _INTCONbits     set	11
   285     0018                     _RCSTAbits      set	24
   286     003A                     _RC2            set	58
   287     00F9                     _GO_nDONE       set	249
   288     00FA                     _CHS0           set	250
   289     00FB                     _CHS1           set	251
   290     00FC                     _CHS2           set	252
   291     00FD                     _CHS3           set	253
   292     0063                     _SSPIF          set	99
   293     0064                     _TXIF           set	100
   294     009E                     _ADRESL         set	158
   295     009F                     _ADCON1         set	159
   296     0093                     _SSPADD         set	147
   297     0094                     _SSPSTAT        set	148
   298     0091                     _SSPCON2        set	145
   299     008C                     _PIE1bits       set	140
   300     0098                     _TXSTAbits      set	152
   301     0099                     _SPBRG          set	153
   302     043A                     _TRISC2         set	1082
   303     048C                     _ACKEN          set	1164
   304     048D                     _ACKDT          set	1165
   305     04A0                     _BF             set	1184
   306     048B                     _RCEN           set	1163
   307     048A                     _PEN            set	1162
   308     0489                     _RSEN           set	1161
   309     0488                     _SEN            set	1160
   310     043C                     _TRISC4         set	1084
   311     043B                     _TRISC3         set	1083
   312     0189                     _ANSELH         set	393
   313     0188                     _ANSEL          set	392
   314                           
   315                           	psect	strings
   316     0800                     __pstrings:
   317     0800                     stringtab:
   318     0800                     __stringtab:
   319                           
   320                           ;	String table - string pointers are 1 byte each
   321     0800  1BFF               	btfsc	btemp+1,7
   322     0801  280A               	ljmp	stringcode
   323     0802  1383               	bcf	3,7
   324     0803  187F               	btfsc	btemp+1,0
   325     0804  1783               	bsf	3,7
   326     0805  0800               	movf	0,w
   327     0806  0A84               	incf	4,f
   328     0807  1903               	skipnz
   329     0808  0AFF               	incf	btemp+1,f
   330     0809  0008               	return
   331     080A                     stringcode:
   332     080A                     stringdir:
   333     080A  3008               	movlw	high stringdir
   334     080B  008A               	movwf	10
   335     080C  0804               	movf	4,w
   336     080D  0A84               	incf	4,f
   337     080E  0782               	addwf	2,f
   338     080F                     __stringbase:
   339     080F  3400               	retlw	0
   340     0810                     __end_of__stringtab:
   341     0810                     STR_7:
   342     0810  3457               	retlw	87	;'W'
   343     0811  3461               	retlw	97	;'a'
   344     0812  3469               	retlw	105	;'i'
   345     0813  3474               	retlw	116	;'t'
   346     0814  3469               	retlw	105	;'i'
   347     0815  346E               	retlw	110	;'n'
   348     0816  3467               	retlw	103	;'g'
   349     0817  3420               	retlw	32	;' '
   350     0818  3452               	retlw	82	;'R'
   351     0819  3450               	retlw	80	;'P'
   352     081A  3469               	retlw	105	;'i'
   353     081B  3420               	retlw	32	;' '
   354     081C  3444               	retlw	68	;'D'
   355     081D  3461               	retlw	97	;'a'
   356     081E  3474               	retlw	116	;'t'
   357     081F  3461               	retlw	97	;'a'
   358     0820  3420               	retlw	32	;' '
   359     0821  3420               	retlw	32	;' '
   360     0822  3400               	retlw	0
   361     0823                     STR_5:
   362     0823  3450               	retlw	80	;'P'
   363     0824  346C               	retlw	108	;'l'
   364     0825  3461               	retlw	97	;'a'
   365     0826  3463               	retlw	99	;'c'
   366     0827  3465               	retlw	101	;'e'
   367     0828  3420               	retlw	32	;' '
   368     0829  3446               	retlw	70	;'F'
   369     082A  3469               	retlw	105	;'i'
   370     082B  346E               	retlw	110	;'n'
   371     082C  3467               	retlw	103	;'g'
   372     082D  3465               	retlw	101	;'e'
   373     082E  3472               	retlw	114	;'r'
   374     082F  3420               	retlw	32	;' '
   375     0830  3420               	retlw	32	;' '
   376     0831  3420               	retlw	32	;' '
   377     0832  3400               	retlw	0
   378     0833                     STR_11:
   379     0833  3444               	retlw	68	;'D'
   380     0834  3472               	retlw	114	;'r'
   381     0835  3469               	retlw	105	;'i'
   382     0836  3476               	retlw	118	;'v'
   383     0837  3465               	retlw	101	;'e'
   384     0838  3472               	retlw	114	;'r'
   385     0839  3420               	retlw	32	;' '
   386     083A  3450               	retlw	80	;'P'
   387     083B  3472               	retlw	114	;'r'
   388     083C  3465               	retlw	101	;'e'
   389     083D  3473               	retlw	115	;'s'
   390     083E  3465               	retlw	101	;'e'
   391     083F  346E               	retlw	110	;'n'
   392     0840  3474               	retlw	116	;'t'
   393     0841  3400               	retlw	0
   394     0842                     STR_14:
   395     0842  3420               	retlw	32	;' '
   396     0843  3420               	retlw	32	;' '
   397     0844  3420               	retlw	32	;' '
   398     0845  3450               	retlw	80	;'P'
   399     0846  3472               	retlw	114	;'r'
   400     0847  3465               	retlw	101	;'e'
   401     0848  3473               	retlw	115	;'s'
   402     0849  3465               	retlw	101	;'e'
   403     084A  346E               	retlw	110	;'n'
   404     084B  3474               	retlw	116	;'t'
   405     084C  3400               	retlw	0
   406     084D                     STR_13:
   407     084D  3444               	retlw	68	;'D'
   408     084E  3472               	retlw	114	;'r'
   409     084F  3469               	retlw	105	;'i'
   410     0850  3476               	retlw	118	;'v'
   411     0851  3465               	retlw	101	;'e'
   412     0852  3472               	retlw	114	;'r'
   413     0853  3420               	retlw	32	;' '
   414     0854  344E               	retlw	78	;'N'
   415     0855  346F               	retlw	111	;'o'
   416     0856  3474               	retlw	116	;'t'
   417     0857  3400               	retlw	0
   418     0858                     STR_6:
   419     0858  3453               	retlw	83	;'S'
   420     0859  3465               	retlw	101	;'e'
   421     085A  346E               	retlw	110	;'n'
   422     085B  3473               	retlw	115	;'s'
   423     085C  346F               	retlw	111	;'o'
   424     085D  3472               	retlw	114	;'r'
   425     085E  3442               	retlw	66	;'B'
   426     085F  343D               	retlw	61	;'='
   427     0860  3400               	retlw	0
   428     0861                     STR_9:
   429     0861  3454               	retlw	84	;'T'
   430     0862  3465               	retlw	101	;'e'
   431     0863  346D               	retlw	109	;'m'
   432     0864  3470               	retlw	112	;'p'
   433     0865  343A               	retlw	58	;':'
   434     0866  3400               	retlw	0
   435     0867                     STR_2:
   436     0867  3448               	retlw	72	;'H'
   437     0868  3442               	retlw	66	;'B'
   438     0869  343A               	retlw	58	;':'
   439     086A  3400               	retlw	0
   440     086B                     STR_4:
   441     086B  3448               	retlw	72	;'H'
   442     086C  3430               	retlw	48	;'0'
   443     086D  3400               	retlw	0
   444     086E                     STR_12:
   445     086E  3450               	retlw	80	;'P'
   446     086F  3430               	retlw	48	;'0'
   447     0870  3400               	retlw	0
   448     0871                     STR_1:
   449     0871  3448               	retlw	72	;'H'
   450     0872  3431               	retlw	49	;'1'
   451     0873  3400               	retlw	0
   452     0874                     STR_10:
   453     0874  3450               	retlw	80	;'P'
   454     0875  3431               	retlw	49	;'1'
   455     0876  3400               	retlw	0
   456     0877                     STR_8:
   457     0877  3452               	retlw	82	;'R'
   458     0878  3431               	retlw	49	;'1'
   459     0879  3400               	retlw	0
   460     087A                     STR_3:
   461     087A  3425               	retlw	37	;'%'
   462     087B  3475               	retlw	117	;'u'
   463     087C  3400               	retlw	0
   464                           
   465                           	psect	cinit
   466     0011                     start_initialization:	
   467                           ; #config settings
   468                           
   469     0011                     __initialization:
   470                           
   471                           ; Initialize objects allocated to BANK1
   472     0011  1683               	bsf	3,5	;RP0=1, select bank1
   473     0012  1303               	bcf	3,6	;RP1=0, select bank1
   474     0013  120A  158A  21D1  120A  118A  	fcall	__pidataBANK1	;fetch initializer
   475     0018  00DA               	movwf	__pdataBANK1& (0+127)
   476     0019  120A  158A  21D2  120A  118A  	fcall	__pidataBANK1+1	;fetch initializer
   477     001E  00DB               	movwf	(__pdataBANK1+1)& (0+127)
   478     001F  120A  158A  21D3  120A  118A  	fcall	__pidataBANK1+2	;fetch initializer
   479     0024  00DC               	movwf	(__pdataBANK1+2)& (0+127)
   480                           
   481                           ; Initialize objects allocated to COMMON
   482     0025  120A  118A  27FE  120A  118A  	fcall	__pidataCOMMON	;fetch initializer
   483     002A  00F9               	movwf	__pdataCOMMON& (0+127)
   484                           
   485                           ; Clear objects allocated to BANK3
   486     002B  1783               	bsf	3,7	;select IRP bank2
   487     002C  3090               	movlw	low __pbssBANK3
   488     002D  0084               	movwf	4
   489     002E  30D0               	movlw	low (__pbssBANK3+64)
   490     002F  120A  158A  21DB  120A  118A  	fcall	clear_ram0
   491                           
   492                           ; Clear objects allocated to BANK1
   493     0034  1383               	bcf	3,7	;select IRP bank0
   494     0035  30A0               	movlw	low __pbssBANK1
   495     0036  0084               	movwf	4
   496     0037  30C0               	movlw	low (__pbssBANK1+32)
   497     0038  120A  158A  21DB  120A  118A  	fcall	clear_ram0
   498                           
   499                           ; Clear objects allocated to BANK0
   500     003D  3063               	movlw	low __pbssBANK0
   501     003E  0084               	movwf	4
   502     003F  306E               	movlw	low (__pbssBANK0+11)
   503     0040  120A  158A  21DB  120A  118A  	fcall	clear_ram0
   504                           
   505                           ; Clear objects allocated to COMMON
   506     0045  01F7               	clrf	__pbssCOMMON& (0+127)
   507     0046  01F8               	clrf	(__pbssCOMMON+1)& (0+127)
   508     0047                     end_of_initialization:	
   509                           ;End of C runtime variable initialization code
   510                           
   511     0047                     __end_of__initialization:
   512     0047  0183               	clrf	3
   513     0048  120A  118A  284B   	ljmp	_main	;jump to C main() function
   514                           
   515                           	psect	bssCOMMON
   516     0077                     __pbssCOMMON:
   517     0077                     _i2c_add:
   518     0077                     	ds	1
   519     0078                     _RS:
   520     0078                     	ds	1
   521                           
   522                           	psect	dataCOMMON
   523     0079                     __pdataCOMMON:
   524     0079                     _BackLight_State:
   525     0079                     	ds	1
   526                           
   527                           	psect	bssBANK0
   528     0063                     __pbssBANK0:
   529     0063                     Display_Sensor_Values@F1964:
   530     0063                     	ds	4
   531     0067                     _width:
   532     0067                     	ds	2
   533     0069                     _prec:
   534     0069                     	ds	2
   535     006B                     _flags:
   536     006B                     	ds	1
   537     006C                     _bpm_index:
   538     006C                     	ds	1
   539     006D                     _rx_index:
   540     006D                     	ds	1
   541                           
   542                           	psect	bssBANK1
   543     00A0                     __pbssBANK1:
   544     00A0                     _bpm_buf:
   545     00A0                     	ds	8
   546     00A8                     Display_Sensor_Values@F1966:
   547     00A8                     	ds	4
   548     00AC                     _timer_ms:
   549     00AC                     	ds	2
   550     00AE                     _last_peak_time:
   551     00AE                     	ds	2
   552     00B0                     _peak_detected:
   553     00B0                     	ds	1
   554     00B1                     _buf_index:
   555     00B1                     	ds	1
   556     00B2                     _msg_ready:
   557     00B2                     	ds	1
   558     00B3                     _CIntData:
   559     00B3                     	ds	1
   560     00B4                     _SystemStatus:
   561     00B4                     	ds	1
   562     00B5                     _ADCcode:
   563     00B5                     	ds	1
   564     00B6                     _SP:
   565     00B6                     	ds	1
   566     00B7                     _hrP:
   567     00B7                     	ds	1
   568     00B8                     _rx_buffer:
   569     00B8                     	ds	8
   570                           
   571                           	psect	dataBANK1
   572     00DA                     __pdataBANK1:
   573     00DA                     _first_beat:
   574     00DA                     	ds	1
   575     00DB                     _DHB:
   576     00DB                     	ds	1
   577     00DC                     _Seat:
   578     00DC                     	ds	1
   579                           
   580                           	psect	bssBANK3
   581     0190                     __pbssBANK3:
   582     0190                     _dbuf:
   583     0190                     	ds	32
   584     01B0                     _ir_buf:
   585     01B0                     	ds	32
   586                           
   587                           	psect	clrtext
   588     09DB                     clear_ram0:	
   589                           ;	Called with FSR containing the base address, and
   590                           ;	W with the last address+1
   591                           
   592     09DB  0064               	clrwdt	;clear the watchdog before getting into this loop
   593     09DC                     clrloop0:
   594     09DC  0180               	clrf	0	;clear RAM location pointed to by FSR
   595     09DD  0A84               	incf	4,f	;increment pointer
   596     09DE  0604               	xorwf	4,w	;XOR with final address
   597     09DF  1903               	btfsc	3,2	;have we reached the end yet?
   598     09E0  3400               	retlw	0	;all done for this memory range, return
   599     09E1  0604               	xorwf	4,w	;XOR again to restore value
   600     09E2  29DC               	goto	clrloop0	;do the next byte
   601                           
   602                           	psect	cstackBANK3
   603     01D0                     __pcstackBANK3:
   604     01D0                     main@adc5:
   605                           
   606                           ; 2 bytes @ 0x0
   607     01D0                     	ds	2
   608     01D2                     main@adc6:
   609                           
   610                           ; 2 bytes @ 0x2
   611     01D2                     	ds	2
   612     01D4                     main@adc8:
   613                           
   614                           ; 2 bytes @ 0x4
   615     01D4                     	ds	2
   616     01D6                     main@adc9:
   617                           
   618                           ; 2 bytes @ 0x6
   619     01D6                     	ds	2
   620     01D8                     main@adc2:
   621                           
   622                           ; 2 bytes @ 0x8
   623     01D8                     	ds	2
   624     01DA                     main@adc3:
   625                           
   626                           ; 2 bytes @ 0xA
   627     01DA                     	ds	2
   628     01DC                     main@t_dC10:
   629                           
   630                           ; 2 bytes @ 0xC
   631     01DC                     	ds	2
   632     01DE                     main@red:
   633                           
   634                           ; 4 bytes @ 0xE
   635     01DE                     	ds	4
   636     01E2                     main@temp_tick:
   637                           
   638                           ; 2 bytes @ 0x12
   639     01E2                     	ds	2
   640     01E4                     main@ir:
   641                           
   642                           ; 4 bytes @ 0x14
   643     01E4                     	ds	4
   644                           
   645                           	psect	cstackBANK1
   646     00C0                     __pcstackBANK1:
   647     00C0                     ??_process_heart_rate:
   648                           
   649                           ; 1 bytes @ 0x0
   650     00C0                     	ds	4
   651     00C4                     process_heart_rate@avg:
   652                           
   653                           ; 4 bytes @ 0x4
   654     00C4                     	ds	4
   655     00C8                     process_heart_rate@current_bpm:
   656                           
   657                           ; 2 bytes @ 0x8
   658     00C8                     	ds	2
   659     00CA                     process_heart_rate@sum:
   660                           
   661                           ; 4 bytes @ 0xA
   662     00CA                     	ds	4
   663     00CE                     process_heart_rate@ir_ac:
   664                           
   665                           ; 4 bytes @ 0xE
   666     00CE                     	ds	4
   667     00D2                     process_heart_rate@now:
   668                           
   669                           ; 2 bytes @ 0x12
   670     00D2                     	ds	2
   671     00D4                     process_heart_rate@dt:
   672                           
   673                           ; 2 bytes @ 0x14
   674     00D4                     	ds	2
   675     00D6                     process_heart_rate@i:
   676                           
   677                           ; 1 bytes @ 0x16
   678     00D6                     	ds	1
   679     00D7                     ??_main:
   680                           
   681                           ; 1 bytes @ 0x17
   682     00D7                     	ds	3
   683                           
   684                           	psect	cstackCOMMON
   685     0070                     __pcstackCOMMON:
   686     0070                     ?_putch:
   687     0070                     ?_UART_Init:	
   688                           ; 1 bytes @ 0x0
   689                           
   690     0070                     ?_UART_TxChar:	
   691                           ; 1 bytes @ 0x0
   692                           
   693     0070                     ?_I2C_WaitIdle:	
   694                           ; 1 bytes @ 0x0
   695                           
   696     0070                     ?_I2C_Init:	
   697                           ; 1 bytes @ 0x0
   698                           
   699     0070                     ?_I2C_Start:	
   700                           ; 1 bytes @ 0x0
   701                           
   702     0070                     ?_I2C_Restart:	
   703                           ; 1 bytes @ 0x0
   704                           
   705     0070                     ?_I2C_Stop:	
   706                           ; 1 bytes @ 0x0
   707                           
   708     0070                     ?_I2C_Write:	
   709                           ; 1 bytes @ 0x0
   710                           
   711     0070                     ?_I2C_Read:	
   712                           ; 1 bytes @ 0x0
   713                           
   714     0070                     ?_IO_Expander_Write:	
   715                           ; 1 bytes @ 0x0
   716                           
   717     0070                     ?_LCD_Write_4Bit:	
   718                           ; 1 bytes @ 0x0
   719                           
   720     0070                     ?_LCD_CMD:	
   721                           ; 1 bytes @ 0x0
   722                           
   723     0070                     ?_LCD_Write_Char:	
   724                           ; 1 bytes @ 0x0
   725                           
   726     0070                     ?_LCD_Clear:	
   727                           ; 1 bytes @ 0x0
   728                           
   729     0070                     ?_LCD_Init:	
   730                           ; 1 bytes @ 0x0
   731                           
   732     0070                     ?_ADC_Init:	
   733                           ; 1 bytes @ 0x0
   734                           
   735     0070                     ?_MAX_Read:	
   736                           ; 1 bytes @ 0x0
   737                           
   738     0070                     ?_MAX30102_Init:	
   739                           ; 1 bytes @ 0x0
   740                           
   741     0070                     ?_ISR:	
   742                           ; 1 bytes @ 0x0
   743                           
   744     0070                     ?_main:	
   745                           ; 1 bytes @ 0x0
   746                           
   747     0070                     putch@c:	
   748                           ; 1 bytes @ 0x0
   749                           
   750     0070                     ??_ISR:	
   751                           ; 1 bytes @ 0x0
   752                           
   753                           
   754                           ; 1 bytes @ 0x0
   755     0070                     	ds	3
   756     0073                     ISR@received:
   757                           
   758                           ; 1 bytes @ 0x3
   759     0073                     	ds	1
   760     0074                     ?_ADC_Read:
   761     0074                     ?_millis:	
   762                           ; 2 bytes @ 0x4
   763                           
   764     0074                     UART_TxChar@ch:	
   765                           ; 2 bytes @ 0x4
   766                           
   767     0074                     I2C_Write@d:	
   768                           ; 1 bytes @ 0x4
   769                           
   770     0074                     I2C_Read@more:	
   771                           ; 1 bytes @ 0x4
   772                           
   773     0074                     ADC_Read@ch2:	
   774                           ; 1 bytes @ 0x4
   775                           
   776     0074                     ___awmod@counter:	
   777                           ; 1 bytes @ 0x4
   778                           
   779     0074                     ___lwdiv@counter:	
   780                           ; 1 bytes @ 0x4
   781                           
   782     0074                     ___lwmod@counter:	
   783                           ; 1 bytes @ 0x4
   784                           
   785     0074                     ___wmul@product:	
   786                           ; 1 bytes @ 0x4
   787                           
   788     0074                     ??_putch:	
   789                           ; 2 bytes @ 0x4
   790                           
   791     0074                     ??_UART_Init:	
   792                           ; 1 bytes @ 0x4
   793                           
   794     0074                     ??_UART_TxChar:	
   795                           ; 1 bytes @ 0x4
   796                           
   797     0074                     ??_I2C_WaitIdle:	
   798                           ; 1 bytes @ 0x4
   799                           
   800     0074                     ??_I2C_Init:	
   801                           ; 1 bytes @ 0x4
   802                           
   803     0074                     ??_I2C_Start:	
   804                           ; 1 bytes @ 0x4
   805                           
   806     0074                     ??_I2C_Restart:	
   807                           ; 1 bytes @ 0x4
   808                           
   809     0074                     ??_I2C_Stop:	
   810                           ; 1 bytes @ 0x4
   811                           
   812     0074                     ??_I2C_Write:	
   813                           ; 1 bytes @ 0x4
   814                           
   815     0074                     ??_I2C_Read:	
   816                           ; 1 bytes @ 0x4
   817                           
   818     0074                     ??_ADC_Init:	
   819                           ; 1 bytes @ 0x4
   820                           
   821     0074                     ??___wmul:	
   822                           ; 1 bytes @ 0x4
   823                           
   824     0074                     ??___awdiv:	
   825                           ; 1 bytes @ 0x4
   826                           
   827     0074                     ??___awmod:	
   828                           ; 1 bytes @ 0x4
   829                           
   830     0074                     ??___lwdiv:	
   831                           ; 1 bytes @ 0x4
   832                           
   833     0074                     ??___lwmod:	
   834                           ; 1 bytes @ 0x4
   835                           
   836                           
   837                           ; 1 bytes @ 0x4
   838     0074                     	ds	1
   839     0075                     ?_UART_TxString:
   840     0075                     ?_MAX_Write:	
   841                           ; 1 bytes @ 0x5
   842                           
   843     0075                     UART_TxString@s:	
   844                           ; 1 bytes @ 0x5
   845                           
   846     0075                     I2C_Read@d:	
   847                           ; 1 bytes @ 0x5
   848                           
   849     0075                     IO_Expander_Write@Data:	
   850                           ; 1 bytes @ 0x5
   851                           
   852     0075                     ADC_Read@ch1:	
   853                           ; 1 bytes @ 0x5
   854                           
   855     0075                     MAX_Write@val:	
   856                           ; 1 bytes @ 0x5
   857                           
   858     0075                     ___awmod@sign:	
   859                           ; 1 bytes @ 0x5
   860                           
   861     0075                     ___lwdiv@quotient:	
   862                           ; 1 bytes @ 0x5
   863                           
   864     0075                     ??_IO_Expander_Write:	
   865                           ; 2 bytes @ 0x5
   866                           
   867                           
   868                           ; 1 bytes @ 0x5
   869     0075                     	ds	1
   870     0076                     ADC_Read@ch0:
   871     0076                     MAX_Write@reg:	
   872                           ; 1 bytes @ 0x6
   873                           
   874     0076                     ??_UART_TxString:	
   875                           ; 1 bytes @ 0x6
   876                           
   877     0076                     ??_LCD_Write_4Bit:	
   878                           ; 1 bytes @ 0x6
   879                           
   880     0076                     ??_MAX_Write:	
   881                           ; 1 bytes @ 0x6
   882                           
   883     0076                     ??_MAX_Read:	
   884                           ; 1 bytes @ 0x6
   885                           
   886     0076                     ??_millis:	
   887                           ; 1 bytes @ 0x6
   888                           
   889                           
   890                           ; 1 bytes @ 0x6
   891     0076                     	ds	1
   892     0077                     ??_vfprintf:
   893     0077                     ??_LCD_Write_String:	
   894                           ; 1 bytes @ 0x7
   895                           
   896     0077                     ??_LCD_Set_Cursor:	
   897                           ; 1 bytes @ 0x7
   898                           
   899                           
   900                           	psect	cstackBANK0
   901     0020                     __pcstackBANK0:	
   902                           ; 1 bytes @ 0x7
   903                           
   904     0020                     ?_MAX30102_ReadFIFO:
   905     0020                     ?_fputc:	
   906                           ; 1 bytes @ 0x0
   907                           
   908     0020                     ?___wmul:	
   909                           ; 2 bytes @ 0x0
   910                           
   911     0020                     ?___awdiv:	
   912                           ; 2 bytes @ 0x0
   913                           
   914     0020                     ?___awmod:	
   915                           ; 2 bytes @ 0x0
   916                           
   917     0020                     ?___lwdiv:	
   918                           ; 2 bytes @ 0x0
   919                           
   920     0020                     ?___lwmod:	
   921                           ; 2 bytes @ 0x0
   922                           
   923     0020                     LCD_Write_4Bit@Nibble:	
   924                           ; 2 bytes @ 0x0
   925                           
   926     0020                     MAX_Read@reg:	
   927                           ; 1 bytes @ 0x0
   928                           
   929     0020                     MAX30102_ReadFIFO@red:	
   930                           ; 1 bytes @ 0x0
   931                           
   932     0020                     ___wmul@multiplier:	
   933                           ; 1 bytes @ 0x0
   934                           
   935     0020                     ___awdiv@divisor:	
   936                           ; 2 bytes @ 0x0
   937                           
   938     0020                     ___awmod@divisor:	
   939                           ; 2 bytes @ 0x0
   940                           
   941     0020                     ___lwdiv@divisor:	
   942                           ; 2 bytes @ 0x0
   943                           
   944     0020                     ___lwmod@divisor:	
   945                           ; 2 bytes @ 0x0
   946                           
   947     0020                     fputc@c:	
   948                           ; 2 bytes @ 0x0
   949                           
   950     0020                     ??_ADC_Read:	
   951                           ; 2 bytes @ 0x0
   952                           
   953     0020                     ??_MAX30102_Init:	
   954                           ; 1 bytes @ 0x0
   955                           
   956                           
   957                           ; 1 bytes @ 0x0
   958     0020                     	ds	1
   959     0021                     ADC_Read@ch3:
   960     0021                     MAX_Read@v:	
   961                           ; 1 bytes @ 0x1
   962                           
   963     0021                     MAX30102_ReadFIFO@ir:	
   964                           ; 1 bytes @ 0x1
   965                           
   966     0021                     ??_LCD_CMD:	
   967                           ; 1 bytes @ 0x1
   968                           
   969     0021                     ??_LCD_Write_Char:	
   970                           ; 1 bytes @ 0x1
   971                           
   972                           
   973                           ; 1 bytes @ 0x1
   974     0021                     	ds	1
   975     0022                     LCD_Write_Char@Data:
   976     0022                     ___wmul@multiplicand:	
   977                           ; 1 bytes @ 0x2
   978                           
   979     0022                     ___awdiv@dividend:	
   980                           ; 2 bytes @ 0x2
   981                           
   982     0022                     ___awmod@dividend:	
   983                           ; 2 bytes @ 0x2
   984                           
   985     0022                     ___lwdiv@dividend:	
   986                           ; 2 bytes @ 0x2
   987                           
   988     0022                     ___lwmod@dividend:	
   989                           ; 2 bytes @ 0x2
   990                           
   991     0022                     fputc@fp:	
   992                           ; 2 bytes @ 0x2
   993                           
   994     0022                     ??_MAX30102_ReadFIFO:	
   995                           ; 2 bytes @ 0x2
   996                           
   997                           
   998                           ; 1 bytes @ 0x2
   999     0022                     	ds	1
  1000     0023                     ?_LCD_Write_String:
  1001     0023                     LCD_CMD@CMD:	
  1002                           ; 1 bytes @ 0x3
  1003                           
  1004     0023                     LCD_Write_String@Str:	
  1005                           ; 1 bytes @ 0x3
  1006                           
  1007                           
  1008                           ; 2 bytes @ 0x3
  1009     0023                     	ds	1
  1010     0024                     ?_LCD_Set_Cursor:
  1011     0024                     ?_MAX30102_Temp_dC10:	
  1012                           ; 1 bytes @ 0x4
  1013                           
  1014     0024                     LCD_Set_Cursor@COL:	
  1015                           ; 2 bytes @ 0x4
  1016                           
  1017     0024                     ___awdiv@counter:	
  1018                           ; 1 bytes @ 0x4
  1019                           
  1020     0024                     ??_fputc:	
  1021                           ; 1 bytes @ 0x4
  1022                           
  1023     0024                     ??_LCD_Clear:	
  1024                           ; 1 bytes @ 0x4
  1025                           
  1026     0024                     ??_LCD_Init:	
  1027                           ; 1 bytes @ 0x4
  1028                           
  1029                           
  1030                           ; 1 bytes @ 0x4
  1031     0024                     	ds	1
  1032     0025                     LCD_Set_Cursor@ROW:
  1033     0025                     ___awdiv@sign:	
  1034                           ; 1 bytes @ 0x5
  1035                           
  1036                           
  1037                           ; 1 bytes @ 0x5
  1038     0025                     	ds	1
  1039     0026                     ?_Display_Sensor_Values:
  1040     0026                     LCD_Init@I2C_Add:	
  1041                           ; 1 bytes @ 0x6
  1042                           
  1043     0026                     Display_Sensor_Values@msg:	
  1044                           ; 1 bytes @ 0x6
  1045                           
  1046     0026                     ___awdiv@quotient:	
  1047                           ; 1 bytes @ 0x6
  1048                           
  1049     0026                     ??_MAX30102_Temp_dC10:	
  1050                           ; 2 bytes @ 0x6
  1051                           
  1052                           
  1053                           ; 1 bytes @ 0x6
  1054     0026                     	ds	1
  1055     0027                     ??_Display_Sensor_Values:
  1056                           
  1057                           ; 1 bytes @ 0x7
  1058     0027                     	ds	1
  1059     0028                     ?_LCD_PrintDeciC:
  1060     0028                     LCD_PrintDeciC@dC10:	
  1061                           ; 1 bytes @ 0x8
  1062                           
  1063     0028                     Display_Sensor_Values@sensorA:	
  1064                           ; 2 bytes @ 0x8
  1065                           
  1066                           
  1067                           ; 4 bytes @ 0x8
  1068     0028                     	ds	2
  1069     002A                     MAX30102_Temp_dC10@frac:
  1070     002A                     ??_LCD_PrintDeciC:	
  1071                           ; 2 bytes @ 0xA
  1072                           
  1073                           
  1074                           ; 1 bytes @ 0xA
  1075     002A                     	ds	2
  1076     002C                     MAX30102_Temp_dC10@tint:
  1077     002C                     Display_Sensor_Values@sensorB:	
  1078                           ; 1 bytes @ 0xC
  1079                           
  1080     002C                     LCD_PrintDeciC@b:	
  1081                           ; 4 bytes @ 0xC
  1082                           
  1083                           
  1084                           ; 6 bytes @ 0xC
  1085     002C                     	ds	1
  1086     002D                     ?_vfpfcnvrt:
  1087     002D                     MAX30102_Temp_dC10@tfrac:	
  1088                           ; 1 bytes @ 0xD
  1089                           
  1090     002D                     vfpfcnvrt@fp:	
  1091                           ; 1 bytes @ 0xD
  1092                           
  1093                           
  1094                           ; 2 bytes @ 0xD
  1095     002D                     	ds	2
  1096     002F                     vfpfcnvrt@fmt:
  1097                           
  1098                           ; 1 bytes @ 0xF
  1099     002F                     	ds	1
  1100     0030                     Display_Sensor_Values@i:
  1101     0030                     vfpfcnvrt@ap:	
  1102                           ; 1 bytes @ 0x10
  1103                           
  1104                           
  1105                           ; 1 bytes @ 0x10
  1106     0030                     	ds	1
  1107     0031                     ??_vfpfcnvrt:
  1108                           
  1109                           ; 1 bytes @ 0x11
  1110     0031                     	ds	1
  1111     0032                     LCD_PrintDeciC@fp:
  1112     0032                     MAX30102_ReadFIFO@d:	
  1113                           ; 2 bytes @ 0x12
  1114                           
  1115                           
  1116                           ; 6 bytes @ 0x12
  1117     0032                     	ds	1
  1118     0033                     vfpfcnvrt@convarg:
  1119                           
  1120                           ; 4 bytes @ 0x13
  1121     0033                     	ds	1
  1122     0034                     LCD_PrintDeciC@neg:
  1123                           
  1124                           ; 1 bytes @ 0x14
  1125     0034                     	ds	1
  1126     0035                     LCD_PrintDeciC@i:
  1127                           
  1128                           ; 1 bytes @ 0x15
  1129     0035                     	ds	1
  1130     0036                     LCD_PrintDeciC@ip:
  1131                           
  1132                           ; 2 bytes @ 0x16
  1133     0036                     	ds	1
  1134     0037                     vfpfcnvrt@cp:
  1135                           
  1136                           ; 1 bytes @ 0x17
  1137     0037                     	ds	1
  1138     0038                     MAX30102_ReadFIFO@i:
  1139     0038                     vfpfcnvrt@c:	
  1140                           ; 1 bytes @ 0x18
  1141                           
  1142                           
  1143                           ; 1 bytes @ 0x18
  1144     0038                     	ds	1
  1145     0039                     ?_vfprintf:
  1146     0039                     vfprintf@fp:	
  1147                           ; 2 bytes @ 0x19
  1148                           
  1149                           
  1150                           ; 2 bytes @ 0x19
  1151     0039                     	ds	2
  1152     003B                     vfprintf@fmt:
  1153                           
  1154                           ; 1 bytes @ 0x1B
  1155     003B                     	ds	1
  1156     003C                     vfprintf@ap:
  1157                           
  1158                           ; 1 bytes @ 0x1C
  1159     003C                     	ds	1
  1160     003D                     vfprintf@cfmt:
  1161                           
  1162                           ; 1 bytes @ 0x1D
  1163     003D                     	ds	1
  1164     003E                     ?_sprintf:
  1165     003E                     sprintf@s:	
  1166                           ; 2 bytes @ 0x1E
  1167                           
  1168                           
  1169                           ; 1 bytes @ 0x1E
  1170     003E                     	ds	1
  1171     003F                     sprintf@fmt:
  1172                           
  1173                           ; 1 bytes @ 0x1F
  1174     003F                     	ds	3
  1175     0042                     ??_sprintf:
  1176                           
  1177                           ; 1 bytes @ 0x22
  1178     0042                     	ds	1
  1179     0043                     sprintf@ap:
  1180                           
  1181                           ; 1 bytes @ 0x23
  1182     0043                     	ds	1
  1183     0044                     sprintf@f:
  1184                           
  1185                           ; 11 bytes @ 0x24
  1186     0044                     	ds	11
  1187     004F                     ?_update_bpm:
  1188     004F                     update_bpm@new_bpm:	
  1189                           ; 1 bytes @ 0x2F
  1190                           
  1191                           
  1192                           ; 2 bytes @ 0x2F
  1193     004F                     	ds	2
  1194     0051                     ??_update_bpm:
  1195                           
  1196                           ; 1 bytes @ 0x31
  1197     0051                     	ds	3
  1198     0054                     update_bpm@buffer:
  1199                           
  1200                           ; 6 bytes @ 0x34
  1201     0054                     	ds	6
  1202     005A                     update_bpm@sum:
  1203                           
  1204                           ; 2 bytes @ 0x3A
  1205     005A                     	ds	2
  1206     005C                     update_bpm@i:
  1207                           
  1208                           ; 1 bytes @ 0x3C
  1209     005C                     	ds	1
  1210     005D                     update_bpm@avg_bpm:
  1211                           
  1212                           ; 2 bytes @ 0x3D
  1213     005D                     	ds	2
  1214     005F                     ?_process_heart_rate:
  1215     005F                     process_heart_rate@ir:	
  1216                           ; 1 bytes @ 0x3F
  1217                           
  1218                           
  1219                           ; 4 bytes @ 0x3F
  1220     005F                     	ds	4
  1221                           
  1222                           	psect	maintext
  1223     004B                     __pmaintext:	
  1224 ;;
  1225 ;;Main: autosize = 0, tempsize = 3, incstack = 0, save=0
  1226 ;;
  1227 ;; *************** function _main *****************
  1228 ;; Defined at:
  1229 ;;		line 360 in file "main.c"
  1230 ;; Parameters:    Size  Location     Type
  1231 ;;		None
  1232 ;; Auto vars:     Size  Location     Type
  1233 ;;  t_dC10          2   12[BANK3 ] short 
  1234 ;;  buffer          6    0        unsigned char [6]
  1235 ;;  ir              4   20[BANK3 ] unsigned long 
  1236 ;;  red             4   14[BANK3 ] unsigned long 
  1237 ;;  temp_tick       2   18[BANK3 ] unsigned short 
  1238 ;;  adc3            2   10[BANK3 ] unsigned short 
  1239 ;;  adc2            2    8[BANK3 ] unsigned short 
  1240 ;;  adc9            2    6[BANK3 ] unsigned short 
  1241 ;;  adc8            2    4[BANK3 ] unsigned short 
  1242 ;;  adc6            2    2[BANK3 ] unsigned short 
  1243 ;;  adc5            2    0[BANK3 ] unsigned short 
  1244 ;;  adc4            2    0        unsigned short 
  1245 ;;  adc1            2    0        unsigned short 
  1246 ;;  adc0            2    0        unsigned short 
  1247 ;;  adc7            2    0        unsigned short 
  1248 ;; Return value:  Size  Location     Type
  1249 ;;                  1    wreg      void 
  1250 ;; Registers used:
  1251 ;;		wreg, fsr0l, fsr0h, status,2, status,0, btemp+1, pclath, cstack
  1252 ;; Tracked objects:
  1253 ;;		On entry : B00/0
  1254 ;;		On exit  : 0/0
  1255 ;;		Unchanged: 0/0
  1256 ;; Data sizes:     COMMON   BANK0   BANK1   BANK3   BANK2
  1257 ;;      Params:         0       0       0       0       0
  1258 ;;      Locals:         0       0       0      24       0
  1259 ;;      Temps:          0       0       3       0       0
  1260 ;;      Totals:         0       0       3      24       0
  1261 ;;Total ram usage:       27 bytes
  1262 ;; Hardware stack levels required when called: 9
  1263 ;; This function calls:
  1264 ;;		_ADC_Init
  1265 ;;		_ADC_Read
  1266 ;;		_Display_Sensor_Values
  1267 ;;		_I2C_Init
  1268 ;;		_LCD_Clear
  1269 ;;		_LCD_Init
  1270 ;;		_LCD_PrintDeciC
  1271 ;;		_LCD_Set_Cursor
  1272 ;;		_LCD_Write_String
  1273 ;;		_MAX30102_Init
  1274 ;;		_MAX30102_ReadFIFO
  1275 ;;		_MAX30102_Temp_dC10
  1276 ;;		_UART_Init
  1277 ;;		_UART_TxString
  1278 ;;		_process_heart_rate
  1279 ;; This function is called by:
  1280 ;;		Startup code after reset
  1281 ;; This function uses a non-reentrant model
  1282 ;;
  1283                           
  1284     004B                     _main:	
  1285                           ;psect for function _main
  1286                           
  1287     004B                     l3266:	
  1288                           ;incstack = 0
  1289 ;; hardware stack exceeded
  1290                           ; Regs used in _main: [wreg-fsr0h+status,2+status,0+btemp+1+pclath+cstack]
  1291                           
  1292                           
  1293                           ;main.c: 361:     UART_Init();
  1294     004B  120A  158A  2258  120A  118A  	fcall	_UART_Init
  1295                           
  1296                           ;main.c: 362:     I2C_Init();
  1297     0050  120A  158A  2236  120A  118A  	fcall	_I2C_Init
  1298                           
  1299                           ;main.c: 363:     ADC_Init();
  1300     0055  120A  158A  2217  120A  118A  	fcall	_ADC_Init
  1301     005A                     l3268:
  1302                           
  1303                           ;main.c: 364:     _delay((unsigned long)((100)*(8000000UL/4000.0)));
  1304     005A  3002               	movlw	2
  1305     005B  1683               	bsf	3,5	;RP0=1, select bank1
  1306     005C  1303               	bcf	3,6	;RP1=0, select bank1
  1307     005D  00D9               	movwf	(??_main^(0+128)+2)
  1308     005E  3004               	movlw	4
  1309     005F  00D8               	movwf	(??_main^(0+128)+1)
  1310     0060  30B9               	movlw	185
  1311     0061  00D7               	movwf	??_main^(0+128)
  1312     0062                     u3727:
  1313     0062  0BD7               	decfsz	??_main^(0+128),f
  1314     0063  2862               	goto	u3727
  1315     0064  0BD8               	decfsz	(??_main^(0+128)+1),f
  1316     0065  2862               	goto	u3727
  1317     0066  0BD9               	decfsz	(??_main^(0+128)+2),f
  1318     0067  2862               	goto	u3727
  1319     0068  2869               	nop2
  1320     0069                     l3270:
  1321                           
  1322                           ;main.c: 365:     TRISC2 = 0;
  1323     0069  1683               	bsf	3,5	;RP0=1, select bank1
  1324     006A  1303               	bcf	3,6	;RP1=0, select bank1
  1325     006B  1107               	bcf	7,2	;volatile
  1326     006C                     l3272:
  1327                           
  1328                           ;main.c: 366:     RC2 = 1;
  1329     006C  1283               	bcf	3,5	;RP0=0, select bank0
  1330     006D  1303               	bcf	3,6	;RP1=0, select bank0
  1331     006E  1507               	bsf	7,2	;volatile
  1332                           
  1333                           ;main.c: 367:     MAX30102_Init();
  1334     006F  120A  158A  25A1  120A  118A  	fcall	_MAX30102_Init
  1335                           
  1336                           ;main.c: 368:     LCD_Init(0x4E);
  1337     0074  304E               	movlw	78
  1338     0075  120A  158A  26CA  120A  118A  	fcall	_LCD_Init
  1339     007A                     l3274:
  1340                           
  1341                           ;main.c: 370:     uint32_t red, ir;;main.c: 371:     uint16_t temp_tick = 0;
  1342     007A  1683               	bsf	3,5	;RP0=1, select bank3
  1343     007B  1703               	bsf	3,6	;RP1=1, select bank3
  1344     007C  01E2               	clrf	main@temp_tick^(0+384)
  1345     007D  01E3               	clrf	(main@temp_tick+1)^(0+384)
  1346     007E                     l3276:
  1347                           
  1348                           ;main.c: 372:     uint16_t adc0, adc1, adc2, adc3, adc4;;main.c: 373:     uint16_t adc5,
      +                           adc6, adc7, adc8, adc9;;main.c: 374:     char buffer[6];;main.c: 376:     LCD_Clear();
  1349     007E  120A  158A  2246  120A  118A  	fcall	_LCD_Clear
  1350     0083                     l3278:
  1351                           
  1352                           ;main.c: 377:     LCD_Set_Cursor(1,1);
  1353     0083  1283               	bcf	3,5	;RP0=0, select bank0
  1354     0084  1303               	bcf	3,6	;RP1=0, select bank0
  1355     0085  01A4               	clrf	LCD_Set_Cursor@COL
  1356     0086  0AA4               	incf	LCD_Set_Cursor@COL,f
  1357     0087  3001               	movlw	1
  1358     0088  120A  158A  23E9  120A  118A  	fcall	_LCD_Set_Cursor
  1359     008D                     l3280:
  1360                           
  1361                           ;main.c: 378:     LCD_Write_String("Waiting RPi Data  ");
  1362     008D  3001               	movlw	(low ((STR_7-__stringbase)| (0+32768)))& (0+255)
  1363     008E  1283               	bcf	3,5	;RP0=0, select bank0
  1364     008F  1303               	bcf	3,6	;RP1=0, select bank0
  1365     0090  00A3               	movwf	LCD_Write_String@Str
  1366     0091  3080               	movlw	128
  1367     0092  00A4               	movwf	LCD_Write_String@Str+1
  1368     0093  120A  158A  2370  120A  118A  	fcall	_LCD_Write_String
  1369     0098                     l3282:
  1370                           
  1371                           ;main.c: 381:         if (msg_ready) {
  1372     0098  1683               	bsf	3,5	;RP0=1, select bank1
  1373     0099  1303               	bcf	3,6	;RP1=0, select bank1
  1374     009A  0832               	movf	_msg_ready^(0+128),w	;volatile
  1375     009B  1903               	btfsc	3,2
  1376     009C  289E               	goto	u3611
  1377     009D  289F               	goto	u3610
  1378     009E                     u3611:
  1379     009E  28D2               	goto	l3300
  1380     009F                     u3610:
  1381     009F                     l3284:
  1382                           
  1383                           ;main.c: 383:         if (CIntData == 1) {
  1384     009F  0333               	decf	_CIntData^(0+128),w
  1385     00A0  1D03               	btfss	3,2
  1386     00A1  28A3               	goto	u3621
  1387     00A2  28A4               	goto	u3620
  1388     00A3                     u3621:
  1389     00A3  28BC               	goto	l3290
  1390     00A4                     u3620:
  1391     00A4                     l3286:
  1392                           
  1393                           ;main.c: 384:             Display_Sensor_Values(rx_buffer);
  1394     00A4  30B8               	movlw	(low (_rx_buffer| 0))& (0+255)
  1395     00A5  1283               	bcf	3,5	;RP0=0, select bank0
  1396     00A6  1303               	bcf	3,6	;RP1=0, select bank0
  1397     00A7  00A6               	movwf	Display_Sensor_Values@msg
  1398     00A8  120A  118A  278E  120A  118A  	fcall	_Display_Sensor_Values
  1399     00AD                     l3288:
  1400                           
  1401                           ;main.c: 385:             _delay((unsigned long)((2000)*(8000000UL/4000.0)));
  1402     00AD  3015               	movlw	21
  1403     00AE  1683               	bsf	3,5	;RP0=1, select bank1
  1404     00AF  1303               	bcf	3,6	;RP1=0, select bank1
  1405     00B0  00D9               	movwf	(??_main^(0+128)+2)
  1406     00B1  304B               	movlw	75
  1407     00B2  00D8               	movwf	(??_main^(0+128)+1)
  1408     00B3  30BD               	movlw	189
  1409     00B4  00D7               	movwf	??_main^(0+128)
  1410     00B5                     u3737:
  1411     00B5  0BD7               	decfsz	??_main^(0+128),f
  1412     00B6  28B5               	goto	u3737
  1413     00B7  0BD8               	decfsz	(??_main^(0+128)+1),f
  1414     00B8  28B5               	goto	u3737
  1415     00B9  0BD9               	decfsz	(??_main^(0+128)+2),f
  1416     00BA  28B5               	goto	u3737
  1417     00BB  28BC               	nop2
  1418     00BC                     l3290:
  1419                           
  1420                           ;main.c: 389:         if (rx_buffer[0] == 'A') {
  1421     00BC  3041               	movlw	65
  1422     00BD  1683               	bsf	3,5	;RP0=1, select bank1
  1423     00BE  1303               	bcf	3,6	;RP1=0, select bank1
  1424     00BF  0638               	xorwf	_rx_buffer^(0+128),w	;volatile
  1425     00C0  1D03               	btfss	3,2
  1426     00C1  28C3               	goto	u3631
  1427     00C2  28C4               	goto	u3630
  1428     00C3                     u3631:
  1429     00C3  28C7               	goto	l3294
  1430     00C4                     u3630:
  1431     00C4                     l3292:
  1432                           
  1433                           ;main.c: 390:             SystemStatus = 1;
  1434     00C4  3001               	movlw	1
  1435     00C5  00B4               	movwf	_SystemStatus^(0+128)
  1436                           
  1437                           ;main.c: 391:         }
  1438     00C6  28D1               	goto	l3298
  1439     00C7                     l3294:
  1440     00C7  3042               	movlw	66
  1441     00C8  0638               	xorwf	_rx_buffer^(0+128),w	;volatile
  1442     00C9  1D03               	btfss	3,2
  1443     00CA  28CC               	goto	u3641
  1444     00CB  28CD               	goto	u3640
  1445     00CC                     u3641:
  1446     00CC  28D1               	goto	l3298
  1447     00CD                     u3640:
  1448     00CD                     l3296:
  1449                           
  1450                           ;main.c: 393:             ADCcode = 1;
  1451     00CD  3001               	movlw	1
  1452     00CE  00B5               	movwf	_ADCcode^(0+128)
  1453                           
  1454                           ;main.c: 394:             DHB = 1;
  1455     00CF  3001               	movlw	1
  1456     00D0  00DB               	movwf	_DHB^(0+128)
  1457     00D1                     l3298:
  1458                           
  1459                           ;main.c: 398:         msg_ready = 0;
  1460     00D1  01B2               	clrf	_msg_ready^(0+128)	;volatile
  1461     00D2                     l3300:
  1462                           
  1463                           ;main.c: 402: if (SystemStatus == 1) {
  1464     00D2  0334               	decf	_SystemStatus^(0+128),w
  1465     00D3  1D03               	btfss	3,2
  1466     00D4  28D6               	goto	u3651
  1467     00D5  28D7               	goto	u3650
  1468     00D6                     u3651:
  1469     00D6  28E1               	goto	l3306
  1470     00D7                     u3650:
  1471     00D7                     l3302:
  1472                           
  1473                           ;main.c: 403:     UART_TxString("R1");
  1474     00D7  3068               	movlw	(low ((STR_8-__stringbase)| (0+32768)))& (0+255)
  1475     00D8  00F5               	movwf	UART_TxString@s
  1476     00D9  120A  158A  2283  120A  118A  	fcall	_UART_TxString
  1477     00DE                     l3304:
  1478                           
  1479                           ;main.c: 404:     SystemStatus = 0;
  1480     00DE  1683               	bsf	3,5	;RP0=1, select bank1
  1481     00DF  1303               	bcf	3,6	;RP1=0, select bank1
  1482     00E0  01B4               	clrf	_SystemStatus^(0+128)
  1483     00E1                     l3306:
  1484                           
  1485                           ;main.c: 406:         if(SP==1 && Seat == 1){
  1486     00E1  0336               	decf	_SP^(0+128),w
  1487     00E2  1D03               	btfss	3,2
  1488     00E3  28E5               	goto	u3661
  1489     00E4  28E6               	goto	u3660
  1490     00E5                     u3661:
  1491     00E5  2963               	goto	l3332
  1492     00E6                     u3660:
  1493     00E6                     l3308:
  1494     00E6  035C               	decf	_Seat^(0+128),w
  1495     00E7  1D03               	btfss	3,2
  1496     00E8  28EA               	goto	u3671
  1497     00E9  28EB               	goto	u3670
  1498     00EA                     u3671:
  1499     00EA  2963               	goto	l3332
  1500     00EB                     u3670:
  1501     00EB                     l3310:
  1502                           
  1503                           ;main.c: 407:             ADCcode = 0;
  1504     00EB  01B5               	clrf	_ADCcode^(0+128)
  1505     00EC                     l3312:
  1506                           
  1507                           ;main.c: 408:             MAX30102_ReadFIFO(&red, &ir);
  1508     00EC  30DE               	movlw	(low (main@red| (0+256)))& (0+255)
  1509     00ED  1283               	bcf	3,5	;RP0=0, select bank0
  1510     00EE  1303               	bcf	3,6	;RP1=0, select bank0
  1511     00EF  00A0               	movwf	MAX30102_ReadFIFO@red
  1512     00F0  30E4               	movlw	(low (main@ir| (0+256)))& (0+255)
  1513     00F1  00A1               	movwf	MAX30102_ReadFIFO@ir
  1514     00F2  120A  118A  2455  120A  118A  	fcall	_MAX30102_ReadFIFO
  1515     00F7                     l3314:
  1516                           
  1517                           ;main.c: 409:             process_heart_rate(ir);
  1518     00F7  1683               	bsf	3,5	;RP0=1, select bank3
  1519     00F8  1703               	bsf	3,6	;RP1=1, select bank3
  1520     00F9  0867               	movf	(main@ir+3)^(0+384),w
  1521     00FA  1283               	bcf	3,5	;RP0=0, select bank0
  1522     00FB  1303               	bcf	3,6	;RP1=0, select bank0
  1523     00FC  00E2               	movwf	process_heart_rate@ir+3
  1524     00FD  1683               	bsf	3,5	;RP0=1, select bank3
  1525     00FE  1703               	bsf	3,6	;RP1=1, select bank3
  1526     00FF  0866               	movf	(main@ir+2)^(0+384),w
  1527     0100  1283               	bcf	3,5	;RP0=0, select bank0
  1528     0101  1303               	bcf	3,6	;RP1=0, select bank0
  1529     0102  00E1               	movwf	process_heart_rate@ir+2
  1530     0103  1683               	bsf	3,5	;RP0=1, select bank3
  1531     0104  1703               	bsf	3,6	;RP1=1, select bank3
  1532     0105  0865               	movf	(main@ir+1)^(0+384),w
  1533     0106  1283               	bcf	3,5	;RP0=0, select bank0
  1534     0107  1303               	bcf	3,6	;RP1=0, select bank0
  1535     0108  00E0               	movwf	process_heart_rate@ir+1
  1536     0109  1683               	bsf	3,5	;RP0=1, select bank3
  1537     010A  1703               	bsf	3,6	;RP1=1, select bank3
  1538     010B  0864               	movf	main@ir^(0+384),w
  1539     010C  1283               	bcf	3,5	;RP0=0, select bank0
  1540     010D  1303               	bcf	3,6	;RP1=0, select bank0
  1541     010E  00DF               	movwf	process_heart_rate@ir
  1542     010F  120A  118A  22EE  120A  118A  	fcall	_process_heart_rate
  1543     0114                     l3316:
  1544                           
  1545                           ;main.c: 411:             temp_tick += 100;
  1546     0114  3064               	movlw	100
  1547     0115  1683               	bsf	3,5	;RP0=1, select bank3
  1548     0116  1703               	bsf	3,6	;RP1=1, select bank3
  1549     0117  07E2               	addwf	main@temp_tick^(0+384),f
  1550     0118  1803               	skipnc
  1551     0119  0AE3               	incf	(main@temp_tick+1)^(0+384),f
  1552     011A  3000               	movlw	0
  1553     011B  07E3               	addwf	(main@temp_tick+1)^(0+384),f
  1554     011C                     l3318:
  1555                           
  1556                           ;main.c: 412:             if (temp_tick >= 1000) {
  1557     011C  3003               	movlw	3
  1558     011D  0263               	subwf	(main@temp_tick+1)^(0+384),w
  1559     011E  30E8               	movlw	232
  1560     011F  1903               	skipnz
  1561     0120  0262               	subwf	main@temp_tick^(0+384),w
  1562     0121  1C03               	skipc
  1563     0122  2924               	goto	u3681
  1564     0123  2925               	goto	u3680
  1565     0124                     u3681:
  1566     0124  2963               	goto	l3332
  1567     0125                     u3680:
  1568     0125                     l3320:
  1569                           
  1570                           ;main.c: 413:                 temp_tick = 0;
  1571     0125  01E2               	clrf	main@temp_tick^(0+384)
  1572     0126  01E3               	clrf	(main@temp_tick+1)^(0+384)
  1573     0127                     l3322:
  1574                           
  1575                           ;main.c: 414:                 int16_t t_dC10 = MAX30102_Temp_dC10();
  1576     0127  120A  158A  2603  120A  118A  	fcall	_MAX30102_Temp_dC10
  1577     012C  1283               	bcf	3,5	;RP0=0, select bank0
  1578     012D  1303               	bcf	3,6	;RP1=0, select bank0
  1579     012E  0825               	movf	?_MAX30102_Temp_dC10+1,w
  1580     012F  1683               	bsf	3,5	;RP0=1, select bank3
  1581     0130  1703               	bsf	3,6	;RP1=1, select bank3
  1582     0131  00DD               	movwf	(main@t_dC10+1)^(0+384)
  1583     0132  1283               	bcf	3,5	;RP0=0, select bank0
  1584     0133  1303               	bcf	3,6	;RP1=0, select bank0
  1585     0134  0824               	movf	?_MAX30102_Temp_dC10,w
  1586     0135  1683               	bsf	3,5	;RP0=1, select bank3
  1587     0136  1703               	bsf	3,6	;RP1=1, select bank3
  1588     0137  00DC               	movwf	main@t_dC10^(0+384)
  1589     0138                     l3324:
  1590                           
  1591                           ;main.c: 415:                 LCD_Clear();
  1592     0138  120A  158A  2246  120A  118A  	fcall	_LCD_Clear
  1593     013D                     l3326:
  1594                           
  1595                           ;main.c: 416:                 LCD_Set_Cursor(1,1);
  1596     013D  1283               	bcf	3,5	;RP0=0, select bank0
  1597     013E  1303               	bcf	3,6	;RP1=0, select bank0
  1598     013F  01A4               	clrf	LCD_Set_Cursor@COL
  1599     0140  0AA4               	incf	LCD_Set_Cursor@COL,f
  1600     0141  3001               	movlw	1
  1601     0142  120A  158A  23E9  120A  118A  	fcall	_LCD_Set_Cursor
  1602     0147                     l3328:
  1603                           
  1604                           ;main.c: 417:                 LCD_Write_String("Temp:");
  1605     0147  3052               	movlw	(low ((STR_9-__stringbase)| (0+32768)))& (0+255)
  1606     0148  1283               	bcf	3,5	;RP0=0, select bank0
  1607     0149  1303               	bcf	3,6	;RP1=0, select bank0
  1608     014A  00A3               	movwf	LCD_Write_String@Str
  1609     014B  3080               	movlw	128
  1610     014C  00A4               	movwf	LCD_Write_String@Str+1
  1611     014D  120A  158A  2370  120A  118A  	fcall	_LCD_Write_String
  1612     0152                     l3330:
  1613                           
  1614                           ;main.c: 418:                 LCD_PrintDeciC(t_dC10);
  1615     0152  1683               	bsf	3,5	;RP0=1, select bank3
  1616     0153  1703               	bsf	3,6	;RP1=1, select bank3
  1617     0154  085D               	movf	(main@t_dC10+1)^(0+384),w
  1618     0155  1283               	bcf	3,5	;RP0=0, select bank0
  1619     0156  1303               	bcf	3,6	;RP1=0, select bank0
  1620     0157  00A9               	movwf	LCD_PrintDeciC@dC10+1
  1621     0158  1683               	bsf	3,5	;RP0=1, select bank3
  1622     0159  1703               	bsf	3,6	;RP1=1, select bank3
  1623     015A  085C               	movf	main@t_dC10^(0+384),w
  1624     015B  1283               	bcf	3,5	;RP0=0, select bank0
  1625     015C  1303               	bcf	3,6	;RP1=0, select bank0
  1626     015D  00A8               	movwf	LCD_PrintDeciC@dC10
  1627     015E  120A  118A  2535  120A  118A  	fcall	_LCD_PrintDeciC
  1628     0163                     l3332:
  1629                           
  1630                           ;main.c: 422:         if (ADCcode == 1){
  1631     0163  1683               	bsf	3,5	;RP0=1, select bank1
  1632     0164  1303               	bcf	3,6	;RP1=0, select bank1
  1633     0165  0335               	decf	_ADCcode^(0+128),w
  1634     0166  1D03               	btfss	3,2
  1635     0167  2969               	goto	u3691
  1636     0168  296A               	goto	u3690
  1637     0169                     u3691:
  1638     0169  2AD1               	goto	l3398
  1639     016A                     u3690:
  1640     016A                     l3334:
  1641     016A  01F4               	clrf	ADC_Read@ch2
  1642     016B  01F5               	clrf	ADC_Read@ch1
  1643     016C  01F6               	clrf	ADC_Read@ch0
  1644     016D  3000               	movlw	0
  1645     016E  120A  158A  24C4  120A  118A  	fcall	_ADC_Read
  1646     0173                     l3336:
  1647                           
  1648                           ;main.c: 424:             _delay((unsigned long)((20)*(8000000UL/4000.0)));
  1649     0173  3034               	movlw	52
  1650     0174  1683               	bsf	3,5	;RP0=1, select bank1
  1651     0175  1303               	bcf	3,6	;RP1=0, select bank1
  1652     0176  00D8               	movwf	(??_main^(0+128)+1)
  1653     0177  30F1               	movlw	241
  1654     0178  00D7               	movwf	??_main^(0+128)
  1655     0179                     u3747:
  1656     0179  0BD7               	decfsz	??_main^(0+128),f
  1657     017A  2979               	goto	u3747
  1658     017B  0BD8               	decfsz	(??_main^(0+128)+1),f
  1659     017C  2979               	goto	u3747
  1660     017D                     l3338:
  1661     017D  01F4               	clrf	ADC_Read@ch2
  1662     017E  01F5               	clrf	ADC_Read@ch1
  1663     017F  01F6               	clrf	ADC_Read@ch0
  1664     0180  0AF6               	incf	ADC_Read@ch0,f
  1665     0181  3000               	movlw	0
  1666     0182  120A  158A  24C4  120A  118A  	fcall	_ADC_Read
  1667                           
  1668                           ;main.c: 427:             _delay((unsigned long)((20)*(8000000UL/4000.0)));
  1669     0187  3034               	movlw	52
  1670     0188  1683               	bsf	3,5	;RP0=1, select bank1
  1671     0189  1303               	bcf	3,6	;RP1=0, select bank1
  1672     018A  00D8               	movwf	(??_main^(0+128)+1)
  1673     018B  30F1               	movlw	241
  1674     018C  00D7               	movwf	??_main^(0+128)
  1675     018D                     u3757:
  1676     018D  0BD7               	decfsz	??_main^(0+128),f
  1677     018E  298D               	goto	u3757
  1678     018F  0BD8               	decfsz	(??_main^(0+128)+1),f
  1679     0190  298D               	goto	u3757
  1680     0191                     l3340:
  1681                           
  1682                           ;main.c: 429:             adc2 = ADC_Read(0,0,1,0);
  1683     0191  01F4               	clrf	ADC_Read@ch2
  1684     0192  01F5               	clrf	ADC_Read@ch1
  1685     0193  0AF5               	incf	ADC_Read@ch1,f
  1686     0194  01F6               	clrf	ADC_Read@ch0
  1687     0195  3000               	movlw	0
  1688     0196  120A  158A  24C4  120A  118A  	fcall	_ADC_Read
  1689     019B  0875               	movf	?_ADC_Read+1,w
  1690     019C  1683               	bsf	3,5	;RP0=1, select bank3
  1691     019D  1703               	bsf	3,6	;RP1=1, select bank3
  1692     019E  00D9               	movwf	(main@adc2+1)^(0+384)
  1693     019F  0874               	movf	?_ADC_Read,w
  1694     01A0  00D8               	movwf	main@adc2^(0+384)
  1695     01A1                     l3342:
  1696                           
  1697                           ;main.c: 430:             _delay((unsigned long)((20)*(8000000UL/4000.0)));
  1698     01A1  3034               	movlw	52
  1699     01A2  1683               	bsf	3,5	;RP0=1, select bank1
  1700     01A3  1303               	bcf	3,6	;RP1=0, select bank1
  1701     01A4  00D8               	movwf	(??_main^(0+128)+1)
  1702     01A5  30F1               	movlw	241
  1703     01A6  00D7               	movwf	??_main^(0+128)
  1704     01A7                     u3767:
  1705     01A7  0BD7               	decfsz	??_main^(0+128),f
  1706     01A8  29A7               	goto	u3767
  1707     01A9  0BD8               	decfsz	(??_main^(0+128)+1),f
  1708     01AA  29A7               	goto	u3767
  1709                           
  1710                           ;main.c: 435:             adc3 = ADC_Read(0,0,1,1);
  1711     01AB  01F4               	clrf	ADC_Read@ch2
  1712     01AC  01F5               	clrf	ADC_Read@ch1
  1713     01AD  0AF5               	incf	ADC_Read@ch1,f
  1714     01AE  01F6               	clrf	ADC_Read@ch0
  1715     01AF  0AF6               	incf	ADC_Read@ch0,f
  1716     01B0  3000               	movlw	0
  1717     01B1  120A  158A  24C4  120A  118A  	fcall	_ADC_Read
  1718     01B6  0875               	movf	?_ADC_Read+1,w
  1719     01B7  1683               	bsf	3,5	;RP0=1, select bank3
  1720     01B8  1703               	bsf	3,6	;RP1=1, select bank3
  1721     01B9  00DB               	movwf	(main@adc3+1)^(0+384)
  1722     01BA  0874               	movf	?_ADC_Read,w
  1723     01BB  00DA               	movwf	main@adc3^(0+384)
  1724     01BC                     l3344:
  1725                           
  1726                           ;main.c: 436:             _delay((unsigned long)((20)*(8000000UL/4000.0)));
  1727     01BC  3034               	movlw	52
  1728     01BD  1683               	bsf	3,5	;RP0=1, select bank1
  1729     01BE  1303               	bcf	3,6	;RP1=0, select bank1
  1730     01BF  00D8               	movwf	(??_main^(0+128)+1)
  1731     01C0  30F1               	movlw	241
  1732     01C1  00D7               	movwf	??_main^(0+128)
  1733     01C2                     u3777:
  1734     01C2  0BD7               	decfsz	??_main^(0+128),f
  1735     01C3  29C2               	goto	u3777
  1736     01C4  0BD8               	decfsz	(??_main^(0+128)+1),f
  1737     01C5  29C2               	goto	u3777
  1738     01C6                     l3346:
  1739     01C6  01F4               	clrf	ADC_Read@ch2
  1740     01C7  0AF4               	incf	ADC_Read@ch2,f
  1741     01C8  01F5               	clrf	ADC_Read@ch1
  1742     01C9  01F6               	clrf	ADC_Read@ch0
  1743     01CA  3000               	movlw	0
  1744     01CB  120A  158A  24C4  120A  118A  	fcall	_ADC_Read
  1745                           
  1746                           ;main.c: 442:             _delay((unsigned long)((20)*(8000000UL/4000.0)));
  1747     01D0  3034               	movlw	52
  1748     01D1  1683               	bsf	3,5	;RP0=1, select bank1
  1749     01D2  1303               	bcf	3,6	;RP1=0, select bank1
  1750     01D3  00D8               	movwf	(??_main^(0+128)+1)
  1751     01D4  30F1               	movlw	241
  1752     01D5  00D7               	movwf	??_main^(0+128)
  1753     01D6                     u3787:
  1754     01D6  0BD7               	decfsz	??_main^(0+128),f
  1755     01D7  29D6               	goto	u3787
  1756     01D8  0BD8               	decfsz	(??_main^(0+128)+1),f
  1757     01D9  29D6               	goto	u3787
  1758     01DA                     l3348:
  1759                           
  1760                           ;main.c: 445:             adc5 = ADC_Read(1,1,0,0);
  1761     01DA  01F4               	clrf	ADC_Read@ch2
  1762     01DB  0AF4               	incf	ADC_Read@ch2,f
  1763     01DC  01F5               	clrf	ADC_Read@ch1
  1764     01DD  01F6               	clrf	ADC_Read@ch0
  1765     01DE  3001               	movlw	1
  1766     01DF  120A  158A  24C4  120A  118A  	fcall	_ADC_Read
  1767     01E4  0875               	movf	?_ADC_Read+1,w
  1768     01E5  1683               	bsf	3,5	;RP0=1, select bank3
  1769     01E6  1703               	bsf	3,6	;RP1=1, select bank3
  1770     01E7  00D1               	movwf	(main@adc5+1)^(0+384)
  1771     01E8  0874               	movf	?_ADC_Read,w
  1772     01E9  00D0               	movwf	main@adc5^(0+384)
  1773     01EA                     l3350:
  1774                           
  1775                           ;main.c: 446:             _delay((unsigned long)((20)*(8000000UL/4000.0)));
  1776     01EA  3034               	movlw	52
  1777     01EB  1683               	bsf	3,5	;RP0=1, select bank1
  1778     01EC  1303               	bcf	3,6	;RP1=0, select bank1
  1779     01ED  00D8               	movwf	(??_main^(0+128)+1)
  1780     01EE  30F1               	movlw	241
  1781     01EF  00D7               	movwf	??_main^(0+128)
  1782     01F0                     u3797:
  1783     01F0  0BD7               	decfsz	??_main^(0+128),f
  1784     01F1  29F0               	goto	u3797
  1785     01F2  0BD8               	decfsz	(??_main^(0+128)+1),f
  1786     01F3  29F0               	goto	u3797
  1787                           
  1788                           ;main.c: 449:             adc6 = ADC_Read(1,0,1,0);
  1789     01F4  01F4               	clrf	ADC_Read@ch2
  1790     01F5  01F5               	clrf	ADC_Read@ch1
  1791     01F6  0AF5               	incf	ADC_Read@ch1,f
  1792     01F7  01F6               	clrf	ADC_Read@ch0
  1793     01F8  3001               	movlw	1
  1794     01F9  120A  158A  24C4  120A  118A  	fcall	_ADC_Read
  1795     01FE  0875               	movf	?_ADC_Read+1,w
  1796     01FF  1683               	bsf	3,5	;RP0=1, select bank3
  1797     0200  1703               	bsf	3,6	;RP1=1, select bank3
  1798     0201  00D3               	movwf	(main@adc6+1)^(0+384)
  1799     0202  0874               	movf	?_ADC_Read,w
  1800     0203  00D2               	movwf	main@adc6^(0+384)
  1801     0204                     l3352:
  1802                           
  1803                           ;main.c: 450:             _delay((unsigned long)((20)*(8000000UL/4000.0)));
  1804     0204  3034               	movlw	52
  1805     0205  1683               	bsf	3,5	;RP0=1, select bank1
  1806     0206  1303               	bcf	3,6	;RP1=0, select bank1
  1807     0207  00D8               	movwf	(??_main^(0+128)+1)
  1808     0208  30F1               	movlw	241
  1809     0209  00D7               	movwf	??_main^(0+128)
  1810     020A                     u3807:
  1811     020A  0BD7               	decfsz	??_main^(0+128),f
  1812     020B  2A0A               	goto	u3807
  1813     020C  0BD8               	decfsz	(??_main^(0+128)+1),f
  1814     020D  2A0A               	goto	u3807
  1815     020E                     l3354:
  1816                           
  1817                           ;main.c: 453:             adc8 = ADC_Read(1,0,0,1);
  1818     020E  01F4               	clrf	ADC_Read@ch2
  1819     020F  01F5               	clrf	ADC_Read@ch1
  1820     0210  01F6               	clrf	ADC_Read@ch0
  1821     0211  0AF6               	incf	ADC_Read@ch0,f
  1822     0212  3001               	movlw	1
  1823     0213  120A  158A  24C4  120A  118A  	fcall	_ADC_Read
  1824     0218  0875               	movf	?_ADC_Read+1,w
  1825     0219  1683               	bsf	3,5	;RP0=1, select bank3
  1826     021A  1703               	bsf	3,6	;RP1=1, select bank3
  1827     021B  00D5               	movwf	(main@adc8+1)^(0+384)
  1828     021C  0874               	movf	?_ADC_Read,w
  1829     021D  00D4               	movwf	main@adc8^(0+384)
  1830                           
  1831                           ;main.c: 454:             _delay((unsigned long)((20)*(8000000UL/4000.0)));
  1832     021E  3034               	movlw	52
  1833     021F  1683               	bsf	3,5	;RP0=1, select bank1
  1834     0220  1303               	bcf	3,6	;RP1=0, select bank1
  1835     0221  00D8               	movwf	(??_main^(0+128)+1)
  1836     0222  30F1               	movlw	241
  1837     0223  00D7               	movwf	??_main^(0+128)
  1838     0224                     u3817:
  1839     0224  0BD7               	decfsz	??_main^(0+128),f
  1840     0225  2A24               	goto	u3817
  1841     0226  0BD8               	decfsz	(??_main^(0+128)+1),f
  1842     0227  2A24               	goto	u3817
  1843     0228                     l3356:
  1844                           
  1845                           ;main.c: 457:             adc9 = ADC_Read(1,0,1,1);
  1846     0228  01F4               	clrf	ADC_Read@ch2
  1847     0229  01F5               	clrf	ADC_Read@ch1
  1848     022A  0AF5               	incf	ADC_Read@ch1,f
  1849     022B  01F6               	clrf	ADC_Read@ch0
  1850     022C  0AF6               	incf	ADC_Read@ch0,f
  1851     022D  3001               	movlw	1
  1852     022E  120A  158A  24C4  120A  118A  	fcall	_ADC_Read
  1853     0233  0875               	movf	?_ADC_Read+1,w
  1854     0234  1683               	bsf	3,5	;RP0=1, select bank3
  1855     0235  1703               	bsf	3,6	;RP1=1, select bank3
  1856     0236  00D7               	movwf	(main@adc9+1)^(0+384)
  1857     0237  0874               	movf	?_ADC_Read,w
  1858     0238  00D6               	movwf	main@adc9^(0+384)
  1859     0239                     l3358:
  1860                           
  1861                           ;main.c: 458:             _delay((unsigned long)((20)*(8000000UL/4000.0)));
  1862     0239  3034               	movlw	52
  1863     023A  1683               	bsf	3,5	;RP0=1, select bank1
  1864     023B  1303               	bcf	3,6	;RP1=0, select bank1
  1865     023C  00D8               	movwf	(??_main^(0+128)+1)
  1866     023D  30F1               	movlw	241
  1867     023E  00D7               	movwf	??_main^(0+128)
  1868     023F                     u3827:
  1869     023F  0BD7               	decfsz	??_main^(0+128),f
  1870     0240  2A3F               	goto	u3827
  1871     0241  0BD8               	decfsz	(??_main^(0+128)+1),f
  1872     0242  2A3F               	goto	u3827
  1873     0243                     l3360:
  1874                           
  1875                           ;main.c: 459:             _delay((unsigned long)((200)*(8000000UL/4000.0)));
  1876     0243  3003               	movlw	3
  1877     0244  1683               	bsf	3,5	;RP0=1, select bank1
  1878     0245  1303               	bcf	3,6	;RP1=0, select bank1
  1879     0246  00D9               	movwf	(??_main^(0+128)+2)
  1880     0247  3008               	movlw	8
  1881     0248  00D8               	movwf	(??_main^(0+128)+1)
  1882     0249  3076               	movlw	118
  1883     024A  00D7               	movwf	??_main^(0+128)
  1884     024B                     u3837:
  1885     024B  0BD7               	decfsz	??_main^(0+128),f
  1886     024C  2A4B               	goto	u3837
  1887     024D  0BD8               	decfsz	(??_main^(0+128)+1),f
  1888     024E  2A4B               	goto	u3837
  1889     024F  0BD9               	decfsz	(??_main^(0+128)+2),f
  1890     0250  2A4B               	goto	u3837
  1891     0251  0000               	nop
  1892     0252                     l3362:
  1893                           
  1894                           ;main.c: 460:              if (adc2 >1000 && adc3 > 500)
  1895     0252  3003               	movlw	3
  1896     0253  1683               	bsf	3,5	;RP0=1, select bank3
  1897     0254  1703               	bsf	3,6	;RP1=1, select bank3
  1898     0255  0259               	subwf	(main@adc2+1)^(0+384),w
  1899     0256  30E9               	movlw	233
  1900     0257  1903               	skipnz
  1901     0258  0258               	subwf	main@adc2^(0+384),w
  1902     0259  1C03               	skipc
  1903     025A  2A5C               	goto	u3701
  1904     025B  2A5D               	goto	u3700
  1905     025C                     u3701:
  1906     025C  2A93               	goto	l330
  1907     025D                     u3700:
  1908     025D                     l3364:
  1909     025D  3001               	movlw	1
  1910     025E  025B               	subwf	(main@adc3+1)^(0+384),w
  1911     025F  30F5               	movlw	245
  1912     0260  1903               	skipnz
  1913     0261  025A               	subwf	main@adc3^(0+384),w
  1914     0262  1C03               	skipc
  1915     0263  2A65               	goto	u3711
  1916     0264  2A66               	goto	u3710
  1917     0265                     u3711:
  1918     0265  2A93               	goto	l330
  1919     0266                     u3710:
  1920     0266                     l3366:
  1921                           
  1922                           ;main.c: 461:             {;main.c: 462:                  RC2=1;
  1923     0266  1283               	bcf	3,5	;RP0=0, select bank0
  1924     0267  1303               	bcf	3,6	;RP1=0, select bank0
  1925     0268  1507               	bsf	7,2	;volatile
  1926     0269                     l3368:
  1927                           
  1928                           ;main.c: 463:                DHB=0;
  1929     0269  1683               	bsf	3,5	;RP0=1, select bank1
  1930     026A  1303               	bcf	3,6	;RP1=0, select bank1
  1931     026B  01DB               	clrf	_DHB^(0+128)
  1932     026C                     l3370:
  1933                           
  1934                           ;main.c: 464:                 SP=1;
  1935     026C  3001               	movlw	1
  1936     026D  00B6               	movwf	_SP^(0+128)
  1937     026E                     l3372:
  1938                           
  1939                           ;main.c: 465:                 UART_TxString("P1");
  1940     026E  3065               	movlw	(low ((STR_10-__stringbase)| (0+32768)))& (0+255)
  1941     026F  00F5               	movwf	UART_TxString@s
  1942     0270  120A  158A  2283  120A  118A  	fcall	_UART_TxString
  1943     0275                     l3374:
  1944                           
  1945                           ;main.c: 466:                 LCD_Clear();
  1946     0275  120A  158A  2246  120A  118A  	fcall	_LCD_Clear
  1947     027A                     l3376:
  1948                           
  1949                           ;main.c: 467:                 LCD_Set_Cursor(1,1);
  1950     027A  1283               	bcf	3,5	;RP0=0, select bank0
  1951     027B  1303               	bcf	3,6	;RP1=0, select bank0
  1952     027C  01A4               	clrf	LCD_Set_Cursor@COL
  1953     027D  0AA4               	incf	LCD_Set_Cursor@COL,f
  1954     027E  3001               	movlw	1
  1955     027F  120A  158A  23E9  120A  118A  	fcall	_LCD_Set_Cursor
  1956     0284                     l3378:
  1957                           
  1958                           ;main.c: 468:                 LCD_Write_String("Driver Present");
  1959     0284  3024               	movlw	(low ((STR_11-__stringbase)| (0+32768)))& (0+255)
  1960     0285  1283               	bcf	3,5	;RP0=0, select bank0
  1961     0286  1303               	bcf	3,6	;RP1=0, select bank0
  1962     0287  00A3               	movwf	LCD_Write_String@Str
  1963     0288  3080               	movlw	128
  1964     0289  00A4               	movwf	LCD_Write_String@Str+1
  1965     028A  120A  158A  2370  120A  118A  	fcall	_LCD_Write_String
  1966     028F                     l3380:
  1967                           
  1968                           ;main.c: 469:                 DHB=0;
  1969     028F  1683               	bsf	3,5	;RP0=1, select bank1
  1970     0290  1303               	bcf	3,6	;RP1=0, select bank1
  1971     0291  01DB               	clrf	_DHB^(0+128)
  1972                           
  1973                           ;main.c: 470:             }
  1974     0292  2AD1               	goto	l3398
  1975     0293                     l330:	
  1976                           ;main.c: 471:              else{
  1977                           
  1978                           
  1979                           ;main.c: 472:                 RC2=0;
  1980     0293  1283               	bcf	3,5	;RP0=0, select bank0
  1981     0294  1303               	bcf	3,6	;RP1=0, select bank0
  1982     0295  1107               	bcf	7,2	;volatile
  1983     0296                     l3382:
  1984                           
  1985                           ;main.c: 473:                 SP=0;
  1986     0296  1683               	bsf	3,5	;RP0=1, select bank1
  1987     0297  1303               	bcf	3,6	;RP1=0, select bank1
  1988     0298  01B6               	clrf	_SP^(0+128)
  1989     0299                     l3384:
  1990                           
  1991                           ;main.c: 474:                 DHB = 1;
  1992     0299  3001               	movlw	1
  1993     029A  00DB               	movwf	_DHB^(0+128)
  1994     029B                     l3386:
  1995                           
  1996                           ;main.c: 475:                 UART_TxString("P0");
  1997     029B  305F               	movlw	(low ((STR_12-__stringbase)| (0+32768)))& (0+255)
  1998     029C  00F5               	movwf	UART_TxString@s
  1999     029D  120A  158A  2283  120A  118A  	fcall	_UART_TxString
  2000     02A2                     l3388:
  2001                           
  2002                           ;main.c: 476:                 LCD_Clear();
  2003     02A2  120A  158A  2246  120A  118A  	fcall	_LCD_Clear
  2004     02A7                     l3390:
  2005                           
  2006                           ;main.c: 477:                 LCD_Set_Cursor(1,1);
  2007     02A7  1283               	bcf	3,5	;RP0=0, select bank0
  2008     02A8  1303               	bcf	3,6	;RP1=0, select bank0
  2009     02A9  01A4               	clrf	LCD_Set_Cursor@COL
  2010     02AA  0AA4               	incf	LCD_Set_Cursor@COL,f
  2011     02AB  3001               	movlw	1
  2012     02AC  120A  158A  23E9  120A  118A  	fcall	_LCD_Set_Cursor
  2013     02B1                     l3392:
  2014                           
  2015                           ;main.c: 478:                 LCD_Write_String("Driver Not");
  2016     02B1  303E               	movlw	(low ((STR_13-__stringbase)| (0+32768)))& (0+255)
  2017     02B2  1283               	bcf	3,5	;RP0=0, select bank0
  2018     02B3  1303               	bcf	3,6	;RP1=0, select bank0
  2019     02B4  00A3               	movwf	LCD_Write_String@Str
  2020     02B5  3080               	movlw	128
  2021     02B6  00A4               	movwf	LCD_Write_String@Str+1
  2022     02B7  120A  158A  2370  120A  118A  	fcall	_LCD_Write_String
  2023     02BC                     l3394:
  2024                           
  2025                           ;main.c: 479:                 LCD_Set_Cursor(2,1);
  2026     02BC  1283               	bcf	3,5	;RP0=0, select bank0
  2027     02BD  1303               	bcf	3,6	;RP1=0, select bank0
  2028     02BE  01A4               	clrf	LCD_Set_Cursor@COL
  2029     02BF  0AA4               	incf	LCD_Set_Cursor@COL,f
  2030     02C0  3002               	movlw	2
  2031     02C1  120A  158A  23E9  120A  118A  	fcall	_LCD_Set_Cursor
  2032     02C6                     l3396:
  2033                           
  2034                           ;main.c: 480:                 LCD_Write_String("   Present");
  2035     02C6  3033               	movlw	(low ((STR_14-__stringbase)| (0+32768)))& (0+255)
  2036     02C7  1283               	bcf	3,5	;RP0=0, select bank0
  2037     02C8  1303               	bcf	3,6	;RP1=0, select bank0
  2038     02C9  00A3               	movwf	LCD_Write_String@Str
  2039     02CA  3080               	movlw	128
  2040     02CB  00A4               	movwf	LCD_Write_String@Str+1
  2041     02CC  120A  158A  2370  120A  118A  	fcall	_LCD_Write_String
  2042     02D1                     l3398:
  2043                           
  2044                           ;main.c: 484:         _delay((unsigned long)((100)*(8000000UL/4000.0)));
  2045     02D1  3002               	movlw	2
  2046     02D2  1683               	bsf	3,5	;RP0=1, select bank1
  2047     02D3  1303               	bcf	3,6	;RP1=0, select bank1
  2048     02D4  00D9               	movwf	(??_main^(0+128)+2)
  2049     02D5  3004               	movlw	4
  2050     02D6  00D8               	movwf	(??_main^(0+128)+1)
  2051     02D7  30B9               	movlw	185
  2052     02D8  00D7               	movwf	??_main^(0+128)
  2053     02D9                     u3847:
  2054     02D9  0BD7               	decfsz	??_main^(0+128),f
  2055     02DA  2AD9               	goto	u3847
  2056     02DB  0BD8               	decfsz	(??_main^(0+128)+1),f
  2057     02DC  2AD9               	goto	u3847
  2058     02DD  0BD9               	decfsz	(??_main^(0+128)+2),f
  2059     02DE  2AD9               	goto	u3847
  2060     02DF  2AE0               	nop2
  2061     02E0                     l3400:
  2062                           
  2063                           ;main.c: 485:         timer_ms = (uint16_t)(timer_ms + 100);
  2064     02E0  1683               	bsf	3,5	;RP0=1, select bank1
  2065     02E1  1303               	bcf	3,6	;RP1=0, select bank1
  2066     02E2  082C               	movf	_timer_ms^(0+128),w
  2067     02E3  3E64               	addlw	100
  2068     02E4  00AC               	movwf	_timer_ms^(0+128)
  2069     02E5  082D               	movf	(_timer_ms+1)^(0+128),w
  2070     02E6  1803               	skipnc
  2071     02E7  3E01               	addlw	1
  2072     02E8  3E00               	addlw	0
  2073     02E9  00AD               	movwf	(_timer_ms+1)^(0+128)
  2074     02EA  2898               	goto	l3282
  2075     02EB  120A  118A  280E   	ljmp	start
  2076     02EE                     __end_of_main:
  2077                           
  2078                           	psect	text1
  2079     02EE                     __ptext1:	
  2080 ;; *************** function _process_heart_rate *****************
  2081 ;; Defined at:
  2082 ;;		line 284 in file "main.c"
  2083 ;; Parameters:    Size  Location     Type
  2084 ;;  ir              4   63[BANK0 ] unsigned long 
  2085 ;; Auto vars:     Size  Location     Type
  2086 ;;  current_bpm     2    8[BANK1 ] unsigned short 
  2087 ;;  dt              2   20[BANK1 ] unsigned short 
  2088 ;;  now             2   18[BANK1 ] unsigned short 
  2089 ;;  i               1   22[BANK1 ] unsigned char 
  2090 ;;  ir_ac           4   14[BANK1 ] long 
  2091 ;;  sum             4   10[BANK1 ] unsigned long 
  2092 ;;  avg             4    4[BANK1 ] unsigned long 
  2093 ;; Return value:  Size  Location     Type
  2094 ;;                  1    wreg      void 
  2095 ;; Registers used:
  2096 ;;		wreg, fsr0l, fsr0h, status,2, status,0, btemp+1, pclath, cstack
  2097 ;; Tracked objects:
  2098 ;;		On entry : 0/0
  2099 ;;		On exit  : 0/0
  2100 ;;		Unchanged: 0/0
  2101 ;; Data sizes:     COMMON   BANK0   BANK1   BANK3   BANK2
  2102 ;;      Params:         0       4       0       0       0
  2103 ;;      Locals:         0       0      19       0       0
  2104 ;;      Temps:          0       0       4       0       0
  2105 ;;      Totals:         0       4      23       0       0
  2106 ;;Total ram usage:       27 bytes
  2107 ;; Hardware stack levels used: 1
  2108 ;; Hardware stack levels required when called: 8
  2109 ;; This function calls:
  2110 ;;		_LCD_Set_Cursor
  2111 ;;		_LCD_Write_String
  2112 ;;		___lwdiv
  2113 ;;		_millis
  2114 ;;		_update_bpm
  2115 ;; This function is called by:
  2116 ;;		_main
  2117 ;; This function uses a non-reentrant model
  2118 ;;
  2119                           
  2120     02EE                     _process_heart_rate:	
  2121                           ;psect for function _process_heart_rate
  2122                           
  2123     02EE                     l3158:	
  2124                           ;incstack = 0
  2125 ;; hardware stack exceeded
  2126                           ; Regs used in _process_heart_rate: [wreg-fsr0h+status,2+status,0+btemp+1+pclath+cstack]
  2127                           
  2128                           
  2129                           ;main.c: 285:     if (ir < 3000UL) {
  2130     02EE  1283               	bcf	3,5	;RP0=0, select bank0
  2131     02EF  1303               	bcf	3,6	;RP1=0, select bank0
  2132     02F0  0862               	movf	process_heart_rate@ir+3,w
  2133     02F1  1D03               	btfss	3,2
  2134     02F2  2B01               	goto	u3451
  2135     02F3  0861               	movf	process_heart_rate@ir+2,w
  2136     02F4  1D03               	btfss	3,2
  2137     02F5  2B01               	goto	u3451
  2138     02F6  300B               	movlw	11
  2139     02F7  0260               	subwf	process_heart_rate@ir+1,w
  2140     02F8  1D03               	skipz
  2141     02F9  2AFE               	goto	u3453
  2142     02FA  30B8               	movlw	184
  2143     02FB  025F               	subwf	process_heart_rate@ir,w
  2144     02FC  1D03               	skipz
  2145     02FD  2AFE               	goto	u3453
  2146     02FE                     u3453:
  2147     02FE  1803               	btfsc	3,0
  2148     02FF  2B01               	goto	u3451
  2149     0300  2B02               	goto	u3450
  2150     0301                     u3451:
  2151     0301  2B1D               	goto	l3170
  2152     0302                     u3450:
  2153     0302                     l3160:
  2154                           
  2155                           ;main.c: 286:         LCD_Set_Cursor(2,1);
  2156     0302  1283               	bcf	3,5	;RP0=0, select bank0
  2157     0303  1303               	bcf	3,6	;RP1=0, select bank0
  2158     0304  01A4               	clrf	LCD_Set_Cursor@COL
  2159     0305  0AA4               	incf	LCD_Set_Cursor@COL,f
  2160     0306  3002               	movlw	2
  2161     0307  120A  158A  23E9  120A  118A  	fcall	_LCD_Set_Cursor
  2162     030C                     l3162:
  2163                           
  2164                           ;main.c: 287:         LCD_Write_String("Place Finger   ");
  2165     030C  3014               	movlw	(low ((STR_5-__stringbase)| (0+32768)))& (0+255)
  2166     030D  1283               	bcf	3,5	;RP0=0, select bank0
  2167     030E  1303               	bcf	3,6	;RP1=0, select bank0
  2168     030F  00A3               	movwf	LCD_Write_String@Str
  2169     0310  3080               	movlw	128
  2170     0311  00A4               	movwf	LCD_Write_String@Str+1
  2171     0312  120A  158A  2370  120A  118A  	fcall	_LCD_Write_String
  2172     0317                     l3164:
  2173                           
  2174                           ;main.c: 288:         first_beat = 1;
  2175     0317  3001               	movlw	1
  2176     0318  1683               	bsf	3,5	;RP0=1, select bank1
  2177     0319  1303               	bcf	3,6	;RP1=0, select bank1
  2178     031A  00DA               	movwf	_first_beat^(0+128)
  2179     031B                     l3166:
  2180                           
  2181                           ;main.c: 289:         hrP = 0;
  2182     031B  01B7               	clrf	_hrP^(0+128)
  2183     031C  2C54               	goto	l287
  2184     031D                     l3170:
  2185                           
  2186                           ;main.c: 292:     ir_buf[buf_index] = ir;
  2187     031D  1683               	bsf	3,5	;RP0=1, select bank1
  2188     031E  1303               	bcf	3,6	;RP1=0, select bank1
  2189     031F  0831               	movf	_buf_index^(0+128),w
  2190     0320  00C0               	movwf	??_process_heart_rate^(0+128)
  2191     0321  3001               	movlw	1
  2192     0322                     u3465:
  2193     0322  1003               	clrc
  2194     0323  0DC0               	rlf	??_process_heart_rate^(0+128),f
  2195     0324  3EFF               	addlw	-1
  2196     0325  1D03               	skipz
  2197     0326  2B22               	goto	u3465
  2198     0327  1003               	clrc
  2199     0328  0D40               	rlf	??_process_heart_rate^(0+128),w
  2200     0329  3EB0               	addlw	(low (_ir_buf| (0+256)))& (0+255)
  2201     032A  0084               	movwf	4
  2202     032B  1283               	bcf	3,5	;RP0=0, select bank0
  2203     032C  1303               	bcf	3,6	;RP1=0, select bank0
  2204     032D  085F               	movf	process_heart_rate@ir,w
  2205     032E  1783               	bsf	3,7	;select IRP bank3
  2206     032F  0080               	movwf	0
  2207     0330  0A84               	incf	4,f
  2208     0331  0860               	movf	process_heart_rate@ir+1,w
  2209     0332  0080               	movwf	0
  2210     0333  0A84               	incf	4,f
  2211     0334  0861               	movf	process_heart_rate@ir+2,w
  2212     0335  0080               	movwf	0
  2213     0336  0A84               	incf	4,f
  2214     0337  0862               	movf	process_heart_rate@ir+3,w
  2215     0338  0080               	movwf	0
  2216     0339                     l3172:
  2217                           
  2218                           ;main.c: 293:     buf_index = (uint8_t)((buf_index + 1U) % 8);
  2219     0339  1683               	bsf	3,5	;RP0=1, select bank1
  2220     033A  1303               	bcf	3,6	;RP1=0, select bank1
  2221     033B  0831               	movf	_buf_index^(0+128),w
  2222     033C  3E01               	addlw	1
  2223     033D  00B1               	movwf	_buf_index^(0+128)
  2224     033E                     l3174:
  2225     033E  3007               	movlw	7
  2226     033F  05B1               	andwf	_buf_index^(0+128),f
  2227     0340                     l3176:
  2228                           
  2229                           ;main.c: 294:     uint32_t sum = 0; for(uint8_t i=0;i<8;i++) sum += ir_buf[i];
  2230     0340  3000               	movlw	0
  2231     0341  00CD               	movwf	(process_heart_rate@sum+3)^(0+128)
  2232     0342  3000               	movlw	0
  2233     0343  00CC               	movwf	(process_heart_rate@sum+2)^(0+128)
  2234     0344  3000               	movlw	0
  2235     0345  00CB               	movwf	(process_heart_rate@sum+1)^(0+128)
  2236     0346  3000               	movlw	0
  2237     0347  00CA               	movwf	process_heart_rate@sum^(0+128)
  2238     0348                     l3178:
  2239     0348  01D6               	clrf	process_heart_rate@i^(0+128)
  2240     0349                     l3184:
  2241     0349  0856               	movf	process_heart_rate@i^(0+128),w
  2242     034A  00C0               	movwf	??_process_heart_rate^(0+128)
  2243     034B  3001               	movlw	1
  2244     034C                     u3475:
  2245     034C  1003               	clrc
  2246     034D  0DC0               	rlf	??_process_heart_rate^(0+128),f
  2247     034E  3EFF               	addlw	-1
  2248     034F  1D03               	skipz
  2249     0350  2B4C               	goto	u3475
  2250     0351  1003               	clrc
  2251     0352  0D40               	rlf	??_process_heart_rate^(0+128),w
  2252     0353  3EB0               	addlw	(low (_ir_buf| (0+256)))& (0+255)
  2253     0354  0084               	movwf	4
  2254     0355  0800               	movf	0,w
  2255     0356  07CA               	addwf	process_heart_rate@sum^(0+128),f
  2256     0357  0A84               	incf	4,f
  2257     0358  0800               	movf	0,w
  2258     0359  1803               	skipnc
  2259     035A  0F00               	incfsz	0,w
  2260     035B  2B5D               	goto	u3481
  2261     035C  2B5E               	goto	u3482
  2262     035D                     u3481:
  2263     035D  07CB               	addwf	(process_heart_rate@sum+1)^(0+128),f
  2264     035E                     u3482:
  2265     035E  0A84               	incf	4,f
  2266     035F  0800               	movf	0,w
  2267     0360  1803               	skipnc
  2268     0361  0F00               	incfsz	0,w
  2269     0362  2B64               	goto	u3483
  2270     0363  2B65               	goto	u3484
  2271     0364                     u3483:
  2272     0364  07CC               	addwf	(process_heart_rate@sum+2)^(0+128),f
  2273     0365                     u3484:
  2274     0365  0A84               	incf	4,f
  2275     0366  0800               	movf	0,w
  2276     0367  1803               	skipnc
  2277     0368  0F00               	incfsz	0,w
  2278     0369  2B6B               	goto	u3485
  2279     036A  2B6C               	goto	u3486
  2280     036B                     u3485:
  2281     036B  07CD               	addwf	(process_heart_rate@sum+3)^(0+128),f
  2282     036C                     u3486:
  2283     036C                     l3186:
  2284     036C  3001               	movlw	1
  2285     036D  07D6               	addwf	process_heart_rate@i^(0+128),f
  2286     036E                     l3188:
  2287     036E  3008               	movlw	8
  2288     036F  0256               	subwf	process_heart_rate@i^(0+128),w
  2289     0370  1C03               	skipc
  2290     0371  2B73               	goto	u3491
  2291     0372  2B74               	goto	u3490
  2292     0373                     u3491:
  2293     0373  2B49               	goto	l3184
  2294     0374                     u3490:
  2295     0374                     l3190:
  2296                           
  2297                           ;main.c: 295:     uint32_t avg = sum / 8;
  2298     0374  084A               	movf	process_heart_rate@sum^(0+128),w
  2299     0375  00C0               	movwf	??_process_heart_rate^(0+128)
  2300     0376  084B               	movf	(process_heart_rate@sum+1)^(0+128),w
  2301     0377  00C1               	movwf	(??_process_heart_rate^(0+128)+1)
  2302     0378  084C               	movf	(process_heart_rate@sum+2)^(0+128),w
  2303     0379  00C2               	movwf	(??_process_heart_rate^(0+128)+2)
  2304     037A  084D               	movf	(process_heart_rate@sum+3)^(0+128),w
  2305     037B  00C3               	movwf	(??_process_heart_rate^(0+128)+3)
  2306     037C  3003               	movlw	3
  2307     037D                     u3505:
  2308     037D  1003               	clrc
  2309     037E  0CC3               	rrf	(??_process_heart_rate^(0+128)+3),f
  2310     037F  0CC2               	rrf	(??_process_heart_rate^(0+128)+2),f
  2311     0380  0CC1               	rrf	(??_process_heart_rate^(0+128)+1),f
  2312     0381  0CC0               	rrf	??_process_heart_rate^(0+128),f
  2313     0382                     u3500:
  2314     0382  3EFF               	addlw	-1
  2315     0383  1D03               	skipz
  2316     0384  2B7D               	goto	u3505
  2317     0385  0843               	movf	(??_process_heart_rate+3)^(0+128),w
  2318     0386  00C7               	movwf	(process_heart_rate@avg+3)^(0+128)
  2319     0387  0842               	movf	(??_process_heart_rate+2)^(0+128),w
  2320     0388  00C6               	movwf	(process_heart_rate@avg+2)^(0+128)
  2321     0389  0841               	movf	(??_process_heart_rate+1)^(0+128),w
  2322     038A  00C5               	movwf	(process_heart_rate@avg+1)^(0+128)
  2323     038B  0840               	movf	??_process_heart_rate^(0+128),w
  2324     038C  00C4               	movwf	process_heart_rate@avg^(0+128)
  2325     038D                     l3192:
  2326                           
  2327                           ;main.c: 296:     int32_t ir_ac = (int32_t)ir - (int32_t)avg;
  2328     038D  1283               	bcf	3,5	;RP0=0, select bank0
  2329     038E  1303               	bcf	3,6	;RP1=0, select bank0
  2330     038F  085F               	movf	process_heart_rate@ir,w
  2331     0390  1683               	bsf	3,5	;RP0=1, select bank1
  2332     0391  1303               	bcf	3,6	;RP1=0, select bank1
  2333     0392  00C0               	movwf	??_process_heart_rate^(0+128)
  2334     0393  1283               	bcf	3,5	;RP0=0, select bank0
  2335     0394  1303               	bcf	3,6	;RP1=0, select bank0
  2336     0395  0860               	movf	process_heart_rate@ir+1,w
  2337     0396  1683               	bsf	3,5	;RP0=1, select bank1
  2338     0397  1303               	bcf	3,6	;RP1=0, select bank1
  2339     0398  00C1               	movwf	(??_process_heart_rate^(0+128)+1)
  2340     0399  1283               	bcf	3,5	;RP0=0, select bank0
  2341     039A  1303               	bcf	3,6	;RP1=0, select bank0
  2342     039B  0861               	movf	process_heart_rate@ir+2,w
  2343     039C  1683               	bsf	3,5	;RP0=1, select bank1
  2344     039D  1303               	bcf	3,6	;RP1=0, select bank1
  2345     039E  00C2               	movwf	(??_process_heart_rate^(0+128)+2)
  2346     039F  1283               	bcf	3,5	;RP0=0, select bank0
  2347     03A0  1303               	bcf	3,6	;RP1=0, select bank0
  2348     03A1  0862               	movf	process_heart_rate@ir+3,w
  2349     03A2  1683               	bsf	3,5	;RP0=1, select bank1
  2350     03A3  1303               	bcf	3,6	;RP1=0, select bank1
  2351     03A4  00C3               	movwf	(??_process_heart_rate^(0+128)+3)
  2352     03A5  0844               	movf	process_heart_rate@avg^(0+128),w
  2353     03A6  02C0               	subwf	??_process_heart_rate^(0+128),f
  2354     03A7  0845               	movf	(process_heart_rate@avg+1)^(0+128),w
  2355     03A8  1C03               	skipc
  2356     03A9  0F45               	incfsz	(process_heart_rate@avg+1)^(0+128),w
  2357     03AA  2BAC               	goto	u3511
  2358     03AB  2BAD               	goto	u3512
  2359     03AC                     u3511:
  2360     03AC  02C1               	subwf	(??_process_heart_rate^(0+128)+1),f
  2361     03AD                     u3512:
  2362     03AD  0846               	movf	(process_heart_rate@avg+2)^(0+128),w
  2363     03AE  1C03               	skipc
  2364     03AF  0F46               	incfsz	(process_heart_rate@avg+2)^(0+128),w
  2365     03B0  2BB2               	goto	u3513
  2366     03B1  2BB3               	goto	u3514
  2367     03B2                     u3513:
  2368     03B2  02C2               	subwf	(??_process_heart_rate^(0+128)+2),f
  2369     03B3                     u3514:
  2370     03B3  0847               	movf	(process_heart_rate@avg+3)^(0+128),w
  2371     03B4  1C03               	skipc
  2372     03B5  0F47               	incfsz	(process_heart_rate@avg+3)^(0+128),w
  2373     03B6  2BB8               	goto	u3515
  2374     03B7  2BB9               	goto	u3516
  2375     03B8                     u3515:
  2376     03B8  02C3               	subwf	(??_process_heart_rate^(0+128)+3),f
  2377     03B9                     u3516:
  2378     03B9  0843               	movf	(??_process_heart_rate+3)^(0+128),w
  2379     03BA  00D1               	movwf	(process_heart_rate@ir_ac+3)^(0+128)
  2380     03BB  0842               	movf	(??_process_heart_rate+2)^(0+128),w
  2381     03BC  00D0               	movwf	(process_heart_rate@ir_ac+2)^(0+128)
  2382     03BD  0841               	movf	(??_process_heart_rate+1)^(0+128),w
  2383     03BE  00CF               	movwf	(process_heart_rate@ir_ac+1)^(0+128)
  2384     03BF  0840               	movf	??_process_heart_rate^(0+128),w
  2385     03C0  00CE               	movwf	process_heart_rate@ir_ac^(0+128)
  2386     03C1                     l3194:
  2387                           
  2388                           ;main.c: 298:     if (ir_ac > 100 && !peak_detected) {
  2389     03C1  1BD1               	btfsc	(process_heart_rate@ir_ac+3)^(0+128),7
  2390     03C2  2BD3               	goto	u3521
  2391     03C3  0851               	movf	(process_heart_rate@ir_ac+3)^(0+128),w
  2392     03C4  1D03               	btfss	3,2
  2393     03C5  2BD4               	goto	u3520
  2394     03C6  0850               	movf	(process_heart_rate@ir_ac+2)^(0+128),w
  2395     03C7  1D03               	btfss	3,2
  2396     03C8  2BD4               	goto	u3520
  2397     03C9  084F               	movf	(process_heart_rate@ir_ac+1)^(0+128),w
  2398     03CA  1D03               	btfss	3,2
  2399     03CB  2BD4               	goto	u3520
  2400     03CC  3065               	movlw	101
  2401     03CD  024E               	subwf	process_heart_rate@ir_ac^(0+128),w
  2402     03CE  1D03               	skipz
  2403     03CF  2BD0               	goto	u3523
  2404     03D0                     u3523:
  2405     03D0  1C03               	btfss	3,0
  2406     03D1  2BD3               	goto	u3521
  2407     03D2  2BD4               	goto	u3520
  2408     03D3                     u3521:
  2409     03D3  2C3C               	goto	l3218
  2410     03D4                     u3520:
  2411     03D4                     l3196:
  2412     03D4  1683               	bsf	3,5	;RP0=1, select bank1
  2413     03D5  1303               	bcf	3,6	;RP1=0, select bank1
  2414     03D6  0830               	movf	_peak_detected^(0+128),w
  2415     03D7  1D03               	btfss	3,2
  2416     03D8  2BDA               	goto	u3531
  2417     03D9  2BDB               	goto	u3530
  2418     03DA                     u3531:
  2419     03DA  2C3C               	goto	l3218
  2420     03DB                     u3530:
  2421     03DB                     l3198:
  2422                           
  2423                           ;main.c: 299:         peak_detected = 1;
  2424     03DB  3001               	movlw	1
  2425     03DC  00B0               	movwf	_peak_detected^(0+128)
  2426     03DD                     l3200:
  2427                           
  2428                           ;main.c: 300:         uint16_t now = millis();
  2429     03DD  120A  158A  21D4  120A  118A  	fcall	_millis
  2430     03E2  0875               	movf	?_millis+1,w
  2431     03E3  1683               	bsf	3,5	;RP0=1, select bank1
  2432     03E4  1303               	bcf	3,6	;RP1=0, select bank1
  2433     03E5  00D3               	movwf	(process_heart_rate@now+1)^(0+128)
  2434     03E6  0874               	movf	?_millis,w
  2435     03E7  00D2               	movwf	process_heart_rate@now^(0+128)
  2436     03E8                     l3202:
  2437                           
  2438                           ;main.c: 301:         if (!first_beat) {
  2439     03E8  085A               	movf	_first_beat^(0+128),w
  2440     03E9  1D03               	btfss	3,2
  2441     03EA  2BEC               	goto	u3541
  2442     03EB  2BED               	goto	u3540
  2443     03EC                     u3541:
  2444     03EC  2C35               	goto	l3214
  2445     03ED                     u3540:
  2446     03ED                     l3204:
  2447                           
  2448                           ;main.c: 302:             uint16_t dt = (uint16_t)(now - last_peak_time);
  2449     03ED  082E               	movf	_last_peak_time^(0+128),w
  2450     03EE  0252               	subwf	process_heart_rate@now^(0+128),w
  2451     03EF  00D4               	movwf	process_heart_rate@dt^(0+128)
  2452     03F0  082F               	movf	(_last_peak_time+1)^(0+128),w
  2453     03F1  1C03               	skipc
  2454     03F2  0A2F               	incf	(_last_peak_time+1)^(0+128),w
  2455     03F3  0253               	subwf	(process_heart_rate@now+1)^(0+128),w
  2456     03F4  00D5               	movwf	(process_heart_rate@dt+1)^(0+128)
  2457     03F5                     l3206:
  2458                           
  2459                           ;main.c: 303:             if (dt > 300U && dt < 2000U) {
  2460     03F5  3001               	movlw	1
  2461     03F6  0255               	subwf	(process_heart_rate@dt+1)^(0+128),w
  2462     03F7  302D               	movlw	45
  2463     03F8  1903               	skipnz
  2464     03F9  0254               	subwf	process_heart_rate@dt^(0+128),w
  2465     03FA  1C03               	skipc
  2466     03FB  2BFD               	goto	u3551
  2467     03FC  2BFE               	goto	u3550
  2468     03FD                     u3551:
  2469     03FD  2C35               	goto	l3214
  2470     03FE                     u3550:
  2471     03FE                     l3208:
  2472     03FE  3007               	movlw	7
  2473     03FF  0255               	subwf	(process_heart_rate@dt+1)^(0+128),w
  2474     0400  30D0               	movlw	208
  2475     0401  1903               	skipnz
  2476     0402  0254               	subwf	process_heart_rate@dt^(0+128),w
  2477     0403  1803               	skipnc
  2478     0404  2C06               	goto	u3561
  2479     0405  2C07               	goto	u3560
  2480     0406                     u3561:
  2481     0406  2C35               	goto	l3214
  2482     0407                     u3560:
  2483     0407                     l3210:
  2484                           
  2485                           ;main.c: 304:                 uint16_t current_bpm = (uint16_t)(60000U / dt);
  2486     0407  0855               	movf	(process_heart_rate@dt+1)^(0+128),w
  2487     0408  1283               	bcf	3,5	;RP0=0, select bank0
  2488     0409  1303               	bcf	3,6	;RP1=0, select bank0
  2489     040A  00A1               	movwf	___lwdiv@divisor+1
  2490     040B  1683               	bsf	3,5	;RP0=1, select bank1
  2491     040C  1303               	bcf	3,6	;RP1=0, select bank1
  2492     040D  0854               	movf	process_heart_rate@dt^(0+128),w
  2493     040E  1283               	bcf	3,5	;RP0=0, select bank0
  2494     040F  1303               	bcf	3,6	;RP1=0, select bank0
  2495     0410  00A0               	movwf	___lwdiv@divisor
  2496     0411  3060               	movlw	96
  2497     0412  00A2               	movwf	___lwdiv@dividend
  2498     0413  30EA               	movlw	234
  2499     0414  00A3               	movwf	___lwdiv@dividend+1
  2500     0415  120A  158A  2504  120A  118A  	fcall	___lwdiv
  2501     041A  1283               	bcf	3,5	;RP0=0, select bank0
  2502     041B  1303               	bcf	3,6	;RP1=0, select bank0
  2503     041C  0821               	movf	?___lwdiv+1,w
  2504     041D  1683               	bsf	3,5	;RP0=1, select bank1
  2505     041E  1303               	bcf	3,6	;RP1=0, select bank1
  2506     041F  00C9               	movwf	(process_heart_rate@current_bpm+1)^(0+128)
  2507     0420  1283               	bcf	3,5	;RP0=0, select bank0
  2508     0421  1303               	bcf	3,6	;RP1=0, select bank0
  2509     0422  0820               	movf	?___lwdiv,w
  2510     0423  1683               	bsf	3,5	;RP0=1, select bank1
  2511     0424  1303               	bcf	3,6	;RP1=0, select bank1
  2512     0425  00C8               	movwf	process_heart_rate@current_bpm^(0+128)
  2513     0426                     l3212:
  2514                           
  2515                           ;main.c: 305:                 update_bpm(current_bpm);
  2516     0426  0849               	movf	(process_heart_rate@current_bpm+1)^(0+128),w
  2517     0427  1283               	bcf	3,5	;RP0=0, select bank0
  2518     0428  1303               	bcf	3,6	;RP1=0, select bank0
  2519     0429  00D0               	movwf	update_bpm@new_bpm+1
  2520     042A  1683               	bsf	3,5	;RP0=1, select bank1
  2521     042B  1303               	bcf	3,6	;RP1=0, select bank1
  2522     042C  0848               	movf	process_heart_rate@current_bpm^(0+128),w
  2523     042D  1283               	bcf	3,5	;RP0=0, select bank0
  2524     042E  1303               	bcf	3,6	;RP1=0, select bank0
  2525     042F  00CF               	movwf	update_bpm@new_bpm
  2526     0430  120A  118A  2603  120A  118A  	fcall	_update_bpm
  2527     0435                     l3214:
  2528                           
  2529                           ;main.c: 308:         last_peak_time = now;
  2530     0435  1683               	bsf	3,5	;RP0=1, select bank1
  2531     0436  1303               	bcf	3,6	;RP1=0, select bank1
  2532     0437  0853               	movf	(process_heart_rate@now+1)^(0+128),w
  2533     0438  00AF               	movwf	(_last_peak_time+1)^(0+128)
  2534     0439  0852               	movf	process_heart_rate@now^(0+128),w
  2535     043A  00AE               	movwf	_last_peak_time^(0+128)
  2536     043B                     l3216:
  2537                           
  2538                           ;main.c: 309:         first_beat = 0;
  2539     043B  01DA               	clrf	_first_beat^(0+128)
  2540     043C                     l3218:
  2541                           
  2542                           ;main.c: 311:     if (ir_ac < 50) peak_detected = 0;
  2543     043C  1683               	bsf	3,5	;RP0=1, select bank1
  2544     043D  1303               	bcf	3,6	;RP1=0, select bank1
  2545     043E  1BD1               	btfsc	(process_heart_rate@ir_ac+3)^(0+128),7
  2546     043F  2C51               	goto	u3570
  2547     0440  0851               	movf	(process_heart_rate@ir_ac+3)^(0+128),w
  2548     0441  1D03               	btfss	3,2
  2549     0442  2C50               	goto	u3571
  2550     0443  0850               	movf	(process_heart_rate@ir_ac+2)^(0+128),w
  2551     0444  1D03               	btfss	3,2
  2552     0445  2C50               	goto	u3571
  2553     0446  084F               	movf	(process_heart_rate@ir_ac+1)^(0+128),w
  2554     0447  1D03               	btfss	3,2
  2555     0448  2C50               	goto	u3571
  2556     0449  3032               	movlw	50
  2557     044A  024E               	subwf	process_heart_rate@ir_ac^(0+128),w
  2558     044B  1D03               	skipz
  2559     044C  2C4D               	goto	u3573
  2560     044D                     u3573:
  2561     044D  1803               	btfsc	3,0
  2562     044E  2C50               	goto	u3571
  2563     044F  2C51               	goto	u3570
  2564     0450                     u3571:
  2565     0450  2C54               	goto	l287
  2566     0451                     u3570:
  2567     0451                     l3220:
  2568     0451  1683               	bsf	3,5	;RP0=1, select bank1
  2569     0452  1303               	bcf	3,6	;RP1=0, select bank1
  2570     0453  01B0               	clrf	_peak_detected^(0+128)
  2571     0454                     l287:
  2572     0454  0008               	return
  2573     0455                     __end_of_process_heart_rate:
  2574                           
  2575                           	psect	text2
  2576     0603                     __ptext2:	
  2577 ;; *************** function _update_bpm *****************
  2578 ;; Defined at:
  2579 ;;		line 253 in file "main.c"
  2580 ;; Parameters:    Size  Location     Type
  2581 ;;  new_bpm         2   47[BANK0 ] unsigned short 
  2582 ;; Auto vars:     Size  Location     Type
  2583 ;;  i               1   60[BANK0 ] unsigned char 
  2584 ;;  buffer          6   52[BANK0 ] unsigned char [6]
  2585 ;;  avg_bpm         2   61[BANK0 ] unsigned short 
  2586 ;;  sum             2   58[BANK0 ] unsigned short 
  2587 ;; Return value:  Size  Location     Type
  2588 ;;                  1    wreg      void 
  2589 ;; Registers used:
  2590 ;;		wreg, fsr0l, fsr0h, status,2, status,0, btemp+1, pclath, cstack
  2591 ;; Tracked objects:
  2592 ;;		On entry : 0/0
  2593 ;;		On exit  : 0/0
  2594 ;;		Unchanged: 0/0
  2595 ;; Data sizes:     COMMON   BANK0   BANK1   BANK3   BANK2
  2596 ;;      Params:         0       2       0       0       0
  2597 ;;      Locals:         0      11       0       0       0
  2598 ;;      Temps:          0       3       0       0       0
  2599 ;;      Totals:         0      16       0       0       0
  2600 ;;Total ram usage:       16 bytes
  2601 ;; Hardware stack levels used: 1
  2602 ;; Hardware stack levels required when called: 7
  2603 ;; This function calls:
  2604 ;;		_LCD_Set_Cursor
  2605 ;;		_LCD_Write_String
  2606 ;;		_UART_TxString
  2607 ;;		_sprintf
  2608 ;; This function is called by:
  2609 ;;		_process_heart_rate
  2610 ;; This function uses a non-reentrant model
  2611 ;;
  2612                           
  2613     0603                     _update_bpm:	
  2614                           ;psect for function _update_bpm
  2615                           
  2616     0603                     l2840:	
  2617                           ;incstack = 0
  2618 ;; hardware stack exceeded
  2619                           ; Regs used in _update_bpm: [wreg-fsr0h+status,2+status,0+btemp+1+pclath+cstack]
  2620                           
  2621                           
  2622                           ;main.c: 254:     bpm_buf[bpm_index] = new_bpm;
  2623     0603  1283               	bcf	3,5	;RP0=0, select bank0
  2624     0604  1303               	bcf	3,6	;RP1=0, select bank0
  2625     0605  086C               	movf	_bpm_index,w
  2626     0606  00D1               	movwf	??_update_bpm
  2627     0607  0751               	addwf	??_update_bpm,w
  2628     0608  3EA0               	addlw	(low (_bpm_buf| 0))& (0+255)
  2629     0609  0084               	movwf	4
  2630     060A  084F               	movf	update_bpm@new_bpm,w
  2631     060B  1383               	bcf	3,7	;select IRP bank1
  2632     060C  0080               	movwf	0
  2633     060D  0A84               	incf	4,f
  2634     060E  0850               	movf	update_bpm@new_bpm+1,w
  2635     060F  0080               	movwf	0
  2636     0610                     l2842:
  2637                           
  2638                           ;main.c: 255:     bpm_index = (uint8_t)((bpm_index + 1U) % 4);
  2639     0610  086C               	movf	_bpm_index,w
  2640     0611  3E01               	addlw	1
  2641     0612  00EC               	movwf	_bpm_index
  2642     0613                     l2844:
  2643     0613  3003               	movlw	3
  2644     0614  05EC               	andwf	_bpm_index,f
  2645     0615                     l2846:
  2646                           
  2647                           ;main.c: 257:     uint16_t sum = 0;
  2648     0615  01DA               	clrf	update_bpm@sum
  2649     0616  01DB               	clrf	update_bpm@sum+1
  2650     0617                     l2848:
  2651                           
  2652                           ;main.c: 258:     for(uint8_t i=0;i<4;i++) sum += bpm_buf[i];
  2653     0617  01DC               	clrf	update_bpm@i
  2654     0618                     l2854:
  2655     0618  085C               	movf	update_bpm@i,w
  2656     0619  00D1               	movwf	??_update_bpm
  2657     061A  0751               	addwf	??_update_bpm,w
  2658     061B  3EA0               	addlw	(low (_bpm_buf| 0))& (0+255)
  2659     061C  0084               	movwf	4
  2660     061D  0800               	movf	0,w
  2661     061E  00D2               	movwf	??_update_bpm+1
  2662     061F  0A84               	incf	4,f
  2663     0620  0800               	movf	0,w
  2664     0621  00D3               	movwf	??_update_bpm+2
  2665     0622  0852               	movf	??_update_bpm+1,w
  2666     0623  07DA               	addwf	update_bpm@sum,f
  2667     0624  1803               	skipnc
  2668     0625  0ADB               	incf	update_bpm@sum+1,f
  2669     0626  0853               	movf	??_update_bpm+2,w
  2670     0627  07DB               	addwf	update_bpm@sum+1,f
  2671     0628                     l2856:
  2672     0628  3001               	movlw	1
  2673     0629  07DC               	addwf	update_bpm@i,f
  2674     062A                     l2858:
  2675     062A  3004               	movlw	4
  2676     062B  025C               	subwf	update_bpm@i,w
  2677     062C  1C03               	skipc
  2678     062D  2E2F               	goto	u2901
  2679     062E  2E30               	goto	u2900
  2680     062F                     u2901:
  2681     062F  2E18               	goto	l2854
  2682     0630                     u2900:
  2683     0630                     l2860:
  2684                           
  2685                           ;main.c: 259:     uint16_t avg_bpm = sum / 4;
  2686     0630  085B               	movf	update_bpm@sum+1,w
  2687     0631  00D2               	movwf	??_update_bpm+1
  2688     0632  085A               	movf	update_bpm@sum,w
  2689     0633  00D1               	movwf	??_update_bpm
  2690     0634  1003               	clrc
  2691     0635  0CD2               	rrf	??_update_bpm+1,f
  2692     0636  0CD1               	rrf	??_update_bpm,f
  2693     0637  1003               	clrc
  2694     0638  0CD2               	rrf	??_update_bpm+1,f
  2695     0639  0CD1               	rrf	??_update_bpm,f
  2696     063A  0851               	movf	??_update_bpm,w
  2697     063B  00DD               	movwf	update_bpm@avg_bpm
  2698     063C  0852               	movf	??_update_bpm+1,w
  2699     063D  00DE               	movwf	update_bpm@avg_bpm+1
  2700                           
  2701                           ;main.c: 260:     char buffer[6];;main.c: 262:     hrP++;
  2702     063E  3001               	movlw	1
  2703     063F  1683               	bsf	3,5	;RP0=1, select bank1
  2704     0640  1303               	bcf	3,6	;RP1=0, select bank1
  2705     0641  07B7               	addwf	_hrP^(0+128),f
  2706     0642                     l2862:
  2707                           
  2708                           ;main.c: 263:     if (avg_bpm > 97U) avg_bpm = 83U;
  2709     0642  3000               	movlw	0
  2710     0643  1283               	bcf	3,5	;RP0=0, select bank0
  2711     0644  1303               	bcf	3,6	;RP1=0, select bank0
  2712     0645  025E               	subwf	update_bpm@avg_bpm+1,w
  2713     0646  3062               	movlw	98
  2714     0647  1903               	skipnz
  2715     0648  025D               	subwf	update_bpm@avg_bpm,w
  2716     0649  1C03               	skipc
  2717     064A  2E4C               	goto	u2911
  2718     064B  2E4D               	goto	u2910
  2719     064C                     u2911:
  2720     064C  2E51               	goto	l279
  2721     064D                     u2910:
  2722     064D                     l2864:
  2723     064D  3053               	movlw	83
  2724     064E  00DD               	movwf	update_bpm@avg_bpm
  2725     064F  3000               	movlw	0
  2726     0650  00DE               	movwf	update_bpm@avg_bpm+1
  2727     0651                     l279:
  2728                           
  2729                           ;main.c: 265:     if (hrP > 2U) {
  2730     0651  3003               	movlw	3
  2731     0652  1683               	bsf	3,5	;RP0=1, select bank1
  2732     0653  1303               	bcf	3,6	;RP1=0, select bank1
  2733     0654  0237               	subwf	_hrP^(0+128),w
  2734     0655  1C03               	skipc
  2735     0656  2E58               	goto	u2921
  2736     0657  2E59               	goto	u2920
  2737     0658                     u2921:
  2738     0658  2EC8               	goto	l283
  2739     0659                     u2920:
  2740     0659                     l2866:
  2741                           
  2742                           ;main.c: 266:         if(avg_bpm > 60U && avg_bpm < 95U){
  2743     0659  3000               	movlw	0
  2744     065A  1283               	bcf	3,5	;RP0=0, select bank0
  2745     065B  1303               	bcf	3,6	;RP1=0, select bank0
  2746     065C  025E               	subwf	update_bpm@avg_bpm+1,w
  2747     065D  303D               	movlw	61
  2748     065E  1903               	skipnz
  2749     065F  025D               	subwf	update_bpm@avg_bpm,w
  2750     0660  1C03               	skipc
  2751     0661  2E63               	goto	u2931
  2752     0662  2E64               	goto	u2930
  2753     0663                     u2931:
  2754     0663  2EC1               	goto	l2894
  2755     0664                     u2930:
  2756     0664                     l2868:
  2757     0664  3000               	movlw	0
  2758     0665  025E               	subwf	update_bpm@avg_bpm+1,w
  2759     0666  305F               	movlw	95
  2760     0667  1903               	skipnz
  2761     0668  025D               	subwf	update_bpm@avg_bpm,w
  2762     0669  1803               	skipnc
  2763     066A  2E6C               	goto	u2941
  2764     066B  2E6D               	goto	u2940
  2765     066C                     u2941:
  2766     066C  2EC1               	goto	l2894
  2767     066D                     u2940:
  2768     066D                     l2870:
  2769                           
  2770                           ;main.c: 267:             rx_index = 0;
  2771     066D  01ED               	clrf	_rx_index	;volatile
  2772     066E                     l2872:
  2773                           
  2774                           ;main.c: 268:             UART_TxString("H1");
  2775     066E  3062               	movlw	(low ((STR_1-__stringbase)| (0+32768)))& (0+255)
  2776     066F  00F5               	movwf	UART_TxString@s
  2777     0670  120A  158A  2283  120A  118A  	fcall	_UART_TxString
  2778     0675                     l2874:
  2779                           
  2780                           ;main.c: 269:             LCD_Set_Cursor(2,1);
  2781     0675  1283               	bcf	3,5	;RP0=0, select bank0
  2782     0676  1303               	bcf	3,6	;RP1=0, select bank0
  2783     0677  01A4               	clrf	LCD_Set_Cursor@COL
  2784     0678  0AA4               	incf	LCD_Set_Cursor@COL,f
  2785     0679  3002               	movlw	2
  2786     067A  120A  158A  23E9  120A  118A  	fcall	_LCD_Set_Cursor
  2787     067F                     l2876:
  2788                           
  2789                           ;main.c: 270:             LCD_Write_String("HB:");
  2790     067F  3058               	movlw	(low ((STR_2-__stringbase)| (0+32768)))& (0+255)
  2791     0680  1283               	bcf	3,5	;RP0=0, select bank0
  2792     0681  1303               	bcf	3,6	;RP1=0, select bank0
  2793     0682  00A3               	movwf	LCD_Write_String@Str
  2794     0683  3080               	movlw	128
  2795     0684  00A4               	movwf	LCD_Write_String@Str+1
  2796     0685  120A  158A  2370  120A  118A  	fcall	_LCD_Write_String
  2797     068A                     l2878:
  2798                           
  2799                           ;main.c: 271:             sprintf(buffer, "%u", avg_bpm);
  2800     068A  3054               	movlw	(low (update_bpm@buffer| 0))& (0+255)
  2801     068B  1283               	bcf	3,5	;RP0=0, select bank0
  2802     068C  1303               	bcf	3,6	;RP1=0, select bank0
  2803     068D  00BE               	movwf	sprintf@s
  2804     068E  306B               	movlw	(low ((STR_3-__stringbase)| (0+32768)))& (0+255)
  2805     068F  00BF               	movwf	sprintf@fmt
  2806     0690  085E               	movf	update_bpm@avg_bpm+1,w
  2807     0691  00C1               	movwf	?_sprintf+3
  2808     0692  085D               	movf	update_bpm@avg_bpm,w
  2809     0693  00C0               	movwf	?_sprintf+2
  2810     0694  120A  158A  2300  120A  118A  	fcall	_sprintf
  2811     0699                     l2880:
  2812                           
  2813                           ;main.c: 272:             LCD_Write_String(buffer);
  2814     0699  3054               	movlw	(low (update_bpm@buffer| 0))& (0+255)
  2815     069A  1283               	bcf	3,5	;RP0=0, select bank0
  2816     069B  1303               	bcf	3,6	;RP1=0, select bank0
  2817     069C  00A3               	movwf	LCD_Write_String@Str
  2818     069D  3000               	movlw	0
  2819     069E  00A4               	movwf	LCD_Write_String@Str+1
  2820     069F  120A  158A  2370  120A  118A  	fcall	_LCD_Write_String
  2821     06A4                     l2882:
  2822                           
  2823                           ;main.c: 273:             rx_index = 0;
  2824     06A4  1283               	bcf	3,5	;RP0=0, select bank0
  2825     06A5  1303               	bcf	3,6	;RP1=0, select bank0
  2826     06A6  01ED               	clrf	_rx_index	;volatile
  2827     06A7                     l2884:
  2828                           
  2829                           ;main.c: 274:             _delay((unsigned long)((2000)*(8000000UL/4000.0)));
  2830     06A7  3015               	movlw	21
  2831     06A8  1283               	bcf	3,5	;RP0=0, select bank0
  2832     06A9  1303               	bcf	3,6	;RP1=0, select bank0
  2833     06AA  00D3               	movwf	??_update_bpm+2
  2834     06AB  304B               	movlw	75
  2835     06AC  00D2               	movwf	??_update_bpm+1
  2836     06AD  30BD               	movlw	189
  2837     06AE  00D1               	movwf	??_update_bpm
  2838     06AF                     u3857:
  2839     06AF  0BD1               	decfsz	??_update_bpm,f
  2840     06B0  2EAF               	goto	u3857
  2841     06B1  0BD2               	decfsz	??_update_bpm+1,f
  2842     06B2  2EAF               	goto	u3857
  2843     06B3  0BD3               	decfsz	??_update_bpm+2,f
  2844     06B4  2EAF               	goto	u3857
  2845     06B5  2EB6               	nop2
  2846     06B6                     l2886:
  2847                           
  2848                           ;main.c: 275:             rx_index = 0;
  2849     06B6  1283               	bcf	3,5	;RP0=0, select bank0
  2850     06B7  1303               	bcf	3,6	;RP1=0, select bank0
  2851     06B8  01ED               	clrf	_rx_index	;volatile
  2852     06B9                     l2888:
  2853                           
  2854                           ;main.c: 276:             ADCcode = 1;
  2855     06B9  3001               	movlw	1
  2856     06BA  1683               	bsf	3,5	;RP0=1, select bank1
  2857     06BB  1303               	bcf	3,6	;RP1=0, select bank1
  2858     06BC  00B5               	movwf	_ADCcode^(0+128)
  2859     06BD                     l2890:
  2860                           
  2861                           ;main.c: 277:             Seat = 0;
  2862     06BD  01DC               	clrf	_Seat^(0+128)
  2863     06BE                     l2892:
  2864                           
  2865                           ;main.c: 278:             CIntData=1;
  2866     06BE  3001               	movlw	1
  2867     06BF  00B3               	movwf	_CIntData^(0+128)
  2868                           
  2869                           ;main.c: 279:         } else {
  2870     06C0  2EC8               	goto	l283
  2871     06C1                     l2894:
  2872                           
  2873                           ;main.c: 280:             UART_TxString("H0");
  2874     06C1  305C               	movlw	(low ((STR_4-__stringbase)| (0+32768)))& (0+255)
  2875     06C2  00F5               	movwf	UART_TxString@s
  2876     06C3  120A  158A  2283  120A  118A  	fcall	_UART_TxString
  2877     06C8                     l283:
  2878     06C8  0008               	return
  2879     06C9                     __end_of_update_bpm:
  2880                           
  2881                           	psect	text3
  2882     0B00                     __ptext3:	
  2883 ;; *************** function _sprintf *****************
  2884 ;; Defined at:
  2885 ;;		line 9 in file "C:\Program Files\Microchip\xc8\v3.00\pic\sources\c99\common\nf_sprintf.c"
  2886 ;; Parameters:    Size  Location     Type
  2887 ;;  s               1   30[BANK0 ] PTR unsigned char 
  2888 ;;		 -> update_bpm@buffer(6), 
  2889 ;;  fmt             1   31[BANK0 ] PTR const unsigned char 
  2890 ;;		 -> STR_3(3), 
  2891 ;; Auto vars:     Size  Location     Type
  2892 ;;  f              11   36[BANK0 ] struct _IO_FILE
  2893 ;;  ret             2    0        int 
  2894 ;;  ap              1   35[BANK0 ] PTR void [1]
  2895 ;;		 -> ?_sprintf(2), 
  2896 ;; Return value:  Size  Location     Type
  2897 ;;                  2   30[BANK0 ] int 
  2898 ;; Registers used:
  2899 ;;		wreg, fsr0l, fsr0h, status,2, status,0, btemp+1, pclath, cstack
  2900 ;; Tracked objects:
  2901 ;;		On entry : 0/0
  2902 ;;		On exit  : 0/0
  2903 ;;		Unchanged: 0/0
  2904 ;; Data sizes:     COMMON   BANK0   BANK1   BANK3   BANK2
  2905 ;;      Params:         0       4       0       0       0
  2906 ;;      Locals:         0      12       0       0       0
  2907 ;;      Temps:          0       1       0       0       0
  2908 ;;      Totals:         0      17       0       0       0
  2909 ;;Total ram usage:       17 bytes
  2910 ;; Hardware stack levels used: 1
  2911 ;; Hardware stack levels required when called: 5
  2912 ;; This function calls:
  2913 ;;		_vfprintf
  2914 ;; This function is called by:
  2915 ;;		_update_bpm
  2916 ;; This function uses a non-reentrant model
  2917 ;;
  2918                           
  2919     0B00                     _sprintf:	
  2920                           ;psect for function _sprintf
  2921                           
  2922     0B00                     l2810:	
  2923                           ;incstack = 0
  2924                           ; Regs used in _sprintf: [wreg-fsr0h+status,2+status,0+btemp+1+pclath+cstack]
  2925                           
  2926     0B00  3040               	movlw	(low ((?_sprintf| 0+2)))& (0+255)
  2927     0B01  1283               	bcf	3,5	;RP0=0, select bank0
  2928     0B02  1303               	bcf	3,6	;RP1=0, select bank0
  2929     0B03  00C3               	movwf	sprintf@ap
  2930     0B04                     l2812:
  2931     0B04  083E               	movf	sprintf@s,w
  2932     0B05  00C4               	movwf	sprintf@f
  2933     0B06  3000               	movlw	0
  2934     0B07  00C5               	movwf	sprintf@f+1
  2935     0B08                     l2814:
  2936     0B08  01C6               	clrf	sprintf@f+2
  2937     0B09  01C7               	clrf	sprintf@f+3
  2938     0B0A                     l2816:
  2939     0B0A  01CD               	clrf	sprintf@f+9
  2940     0B0B  01CE               	clrf	sprintf@f+10
  2941     0B0C                     l2818:
  2942     0B0C  3044               	movlw	low sprintf@f
  2943     0B0D  00B9               	movwf	vfprintf@fp
  2944     0B0E  3000               	movlw	high sprintf@f
  2945     0B0F  00BA               	movwf	vfprintf@fp+1
  2946     0B10  083F               	movf	sprintf@fmt,w
  2947     0B11  00BB               	movwf	vfprintf@fmt
  2948     0B12  3043               	movlw	(low (sprintf@ap| 0))& (0+255)
  2949     0B13  00BC               	movwf	vfprintf@ap
  2950     0B14  120A  158A  22DD  120A  158A  	fcall	_vfprintf
  2951     0B19                     l2820:
  2952     0B19  1283               	bcf	3,5	;RP0=0, select bank0
  2953     0B1A  1303               	bcf	3,6	;RP1=0, select bank0
  2954     0B1B  0846               	movf	sprintf@f+2,w
  2955     0B1C  073E               	addwf	sprintf@s,w
  2956     0B1D  00C2               	movwf	??_sprintf
  2957     0B1E  0842               	movf	??_sprintf,w
  2958     0B1F  0084               	movwf	4
  2959     0B20  1383               	bcf	3,7	;select IRP bank0
  2960     0B21  0180               	clrf	0
  2961     0B22                     l883:
  2962     0B22  0008               	return
  2963     0B23                     __end_of_sprintf:
  2964                           
  2965                           	psect	text4
  2966     0ADD                     __ptext4:	
  2967 ;; *************** function _vfprintf *****************
  2968 ;; Defined at:
  2969 ;;		line 1817 in file "C:\Program Files\Microchip\xc8\v3.00\pic\sources\c99\common\doprnt.c"
  2970 ;; Parameters:    Size  Location     Type
  2971 ;;  fp              2   25[BANK0 ] PTR struct _IO_FILE
  2972 ;;		 -> sprintf@f(11), 
  2973 ;;  fmt             1   27[BANK0 ] PTR const unsigned char 
  2974 ;;		 -> STR_3(3), 
  2975 ;;  ap              1   28[BANK0 ] PTR PTR void 
  2976 ;;		 -> sprintf@ap(1), 
  2977 ;; Auto vars:     Size  Location     Type
  2978 ;;  cfmt            1   29[BANK0 ] PTR unsigned char 
  2979 ;;		 -> STR_3(3), 
  2980 ;; Return value:  Size  Location     Type
  2981 ;;                  2   25[BANK0 ] int 
  2982 ;; Registers used:
  2983 ;;		wreg, fsr0l, fsr0h, status,2, status,0, btemp+1, pclath, cstack
  2984 ;; Tracked objects:
  2985 ;;		On entry : 0/0
  2986 ;;		On exit  : 0/0
  2987 ;;		Unchanged: 0/0
  2988 ;; Data sizes:     COMMON   BANK0   BANK1   BANK3   BANK2
  2989 ;;      Params:         0       4       0       0       0
  2990 ;;      Locals:         0       1       0       0       0
  2991 ;;      Temps:          0       0       0       0       0
  2992 ;;      Totals:         0       5       0       0       0
  2993 ;;Total ram usage:        5 bytes
  2994 ;; Hardware stack levels used: 1
  2995 ;; Hardware stack levels required when called: 4
  2996 ;; This function calls:
  2997 ;;		_vfpfcnvrt
  2998 ;; This function is called by:
  2999 ;;		_sprintf
  3000 ;; This function uses a non-reentrant model
  3001 ;;
  3002                           
  3003     0ADD                     _vfprintf:	
  3004                           ;psect for function _vfprintf
  3005                           
  3006     0ADD                     l2752:	
  3007                           ;incstack = 0
  3008 ;; using string table level
  3009                           ; Regs used in _vfprintf: [wreg-fsr0h+status,2+status,0+btemp+1+pclath+cstack]
  3010                           
  3011                           
  3012                           ;C:\Program Files\Microchip\xc8\v3.00\pic\sources\c99\common\doprnt.c: 1817: int vfprint
      +                          f(FILE *fp, const char *fmt, va_list ap);C:\Program Files\Microchip\xc8\v3.00\pic\source
      +                          s\c99\common\doprnt.c: 1818: {;C:\Program Files\Microchip\xc8\v3.00\pic\sources\c99\comm
      +                          on\doprnt.c: 1820:     char *cfmt;;C:\Program Files\Microchip\xc8\v3.00\pic\sources\c99\
      +                          common\doprnt.c: 1822:     cfmt = (char *)fmt;
  3013     0ADD  1283               	bcf	3,5	;RP0=0, select bank0
  3014     0ADE  1303               	bcf	3,6	;RP1=0, select bank0
  3015     0ADF  083B               	movf	vfprintf@fmt,w
  3016     0AE0  00BD               	movwf	vfprintf@cfmt
  3017                           
  3018                           ;C:\Program Files\Microchip\xc8\v3.00\pic\sources\c99\common\doprnt.c: 1826:     while (
      +                          *cfmt) {
  3019     0AE1  2AEF               	goto	l2756
  3020     0AE2                     l2754:
  3021                           
  3022                           ;C:\Program Files\Microchip\xc8\v3.00\pic\sources\c99\common\doprnt.c: 1830:    vfpfcnvr
      +                          t(fp, &cfmt, ap);
  3023     0AE2  0839               	movf	vfprintf@fp,w
  3024     0AE3  00AD               	movwf	vfpfcnvrt@fp
  3025     0AE4  083A               	movf	vfprintf@fp+1,w
  3026     0AE5  00AE               	movwf	vfpfcnvrt@fp+1
  3027     0AE6  303D               	movlw	(low (vfprintf@cfmt| 0))& (0+255)
  3028     0AE7  00AF               	movwf	vfpfcnvrt@fmt
  3029     0AE8  083C               	movf	vfprintf@ap,w
  3030     0AE9  00B0               	movwf	vfpfcnvrt@ap
  3031     0AEA  120A  118A  26C9  120A  158A  	fcall	_vfpfcnvrt
  3032     0AEF                     l2756:
  3033                           
  3034                           ;C:\Program Files\Microchip\xc8\v3.00\pic\sources\c99\common\doprnt.c: 1826:     while (
      +                          *cfmt) {
  3035     0AEF  1283               	bcf	3,5	;RP0=0, select bank0
  3036     0AF0  1303               	bcf	3,6	;RP1=0, select bank0
  3037     0AF1  083D               	movf	vfprintf@cfmt,w
  3038     0AF2  0084               	movwf	4
  3039     0AF3  120A  158A  200A  120A  158A  	fcall	stringdir
  3040     0AF8  3A00               	xorlw	0
  3041     0AF9  1D03               	skipz
  3042     0AFA  2AFC               	goto	u2821
  3043     0AFB  2AFD               	goto	u2820
  3044     0AFC                     u2821:
  3045     0AFC  2AE2               	goto	l2754
  3046     0AFD                     u2820:
  3047     0AFD                     l2758:
  3048                           
  3049                           ;C:\Program Files\Microchip\xc8\v3.00\pic\sources\c99\common\doprnt.c: 1835:  return 0;
  3050     0AFD  01B9               	clrf	?_vfprintf
  3051     0AFE  01BA               	clrf	?_vfprintf+1
  3052     0AFF                     l927:
  3053     0AFF  0008               	return
  3054     0B00                     __end_of_vfprintf:
  3055                           
  3056                           	psect	text5
  3057     06C9                     __ptext5:	
  3058 ;; *************** function _vfpfcnvrt *****************
  3059 ;; Defined at:
  3060 ;;		line 1177 in file "C:\Program Files\Microchip\xc8\v3.00\pic\sources\c99\common\doprnt.c"
  3061 ;; Parameters:    Size  Location     Type
  3062 ;;  fp              2   13[BANK0 ] PTR struct _IO_FILE
  3063 ;;		 -> sprintf@f(11), 
  3064 ;;  fmt             1   15[BANK0 ] PTR PTR unsigned char 
  3065 ;;		 -> vfprintf@cfmt(1), 
  3066 ;;  ap              1   16[BANK0 ] PTR PTR void 
  3067 ;;		 -> sprintf@ap(1), 
  3068 ;; Auto vars:     Size  Location     Type
  3069 ;;  convarg         4   19[BANK0 ] struct .
  3070 ;;  c               1   24[BANK0 ] unsigned char 
  3071 ;;  cp              1   23[BANK0 ] PTR unsigned char 
  3072 ;;		 -> STR_3(3), 
  3073 ;;  done            1    0        _Bool 
  3074 ;; Return value:  Size  Location     Type
  3075 ;;                  1    wreg      void 
  3076 ;; Registers used:
  3077 ;;		wreg, fsr0l, fsr0h, status,2, status,0, btemp+1, pclath, cstack
  3078 ;; Tracked objects:
  3079 ;;		On entry : 0/0
  3080 ;;		On exit  : 0/0
  3081 ;;		Unchanged: 0/0
  3082 ;; Data sizes:     COMMON   BANK0   BANK1   BANK3   BANK2
  3083 ;;      Params:         0       4       0       0       0
  3084 ;;      Locals:         0       6       0       0       0
  3085 ;;      Temps:          0       2       0       0       0
  3086 ;;      Totals:         0      12       0       0       0
  3087 ;;Total ram usage:       12 bytes
  3088 ;; Hardware stack levels used: 1
  3089 ;; Hardware stack levels required when called: 3
  3090 ;; This function calls:
  3091 ;;		___lwdiv
  3092 ;;		___lwmod
  3093 ;;		_fputc
  3094 ;; This function is called by:
  3095 ;;		_vfprintf
  3096 ;; This function uses a non-reentrant model
  3097 ;;
  3098                           
  3099     06C9                     _vfpfcnvrt:	
  3100                           ;psect for function _vfpfcnvrt
  3101                           
  3102     06C9                     l2690:	
  3103                           ;incstack = 0
  3104 ;; using string table level
  3105                           ; Regs used in _vfpfcnvrt: [wreg-fsr0h+status,2+status,0+btemp+1+pclath+cstack]
  3106                           
  3107                           
  3108                           ;C:\Program Files\Microchip\xc8\v3.00\pic\sources\c99\common\doprnt.c: 1177: vfpfcnvrt(F
      +                          ILE *fp, char *fmt[], va_list ap);C:\Program Files\Microchip\xc8\v3.00\pic\sources\c99\c
      +                          ommon\doprnt.c: 1178: {;C:\Program Files\Microchip\xc8\v3.00\pic\sources\c99\common\dopr
      +                          nt.c: 1179:     char c, *cp;;C:\Program Files\Microchip\xc8\v3.00\pic\sources\c99\common
      +                          \doprnt.c: 1180:     _Bool done;;C:\Program Files\Microchip\xc8\v3.00\pic\sources\c99\co
      +                          mmon\doprnt.c: 1188:  } convarg;;C:\Program Files\Microchip\xc8\v3.00\pic\sources\c99\co
      +                          mmon\doprnt.c: 1201:     if ((*fmt)[0] == '%') {
  3109     06C9  1283               	bcf	3,5	;RP0=0, select bank0
  3110     06CA  1303               	bcf	3,6	;RP1=0, select bank0
  3111     06CB  082F               	movf	vfpfcnvrt@fmt,w
  3112     06CC  0084               	movwf	4
  3113     06CD  1383               	bcf	3,7	;select IRP bank0
  3114     06CE  0800               	movf	0,w
  3115     06CF  0084               	movwf	4
  3116     06D0  120A  158A  200A  120A  118A  	fcall	stringdir
  3117     06D5  3A25               	xorlw	37
  3118     06D6  1D03               	skipz
  3119     06D7  2ED9               	goto	u2741
  3120     06D8  2EDA               	goto	u2740
  3121     06D9                     u2741:
  3122     06D9  2F74               	goto	l2728
  3123     06DA                     u2740:
  3124     06DA                     l2692:
  3125                           
  3126                           ;C:\Program Files\Microchip\xc8\v3.00\pic\sources\c99\common\doprnt.c: 1202:         ++*
      +                          fmt;
  3127     06DA  082F               	movf	vfpfcnvrt@fmt,w
  3128     06DB  0084               	movwf	4
  3129     06DC  3001               	movlw	1
  3130     06DD  0780               	addwf	0,f
  3131     06DE                     l2694:
  3132                           
  3133                           ;C:\Program Files\Microchip\xc8\v3.00\pic\sources\c99\common\doprnt.c: 1204:         fla
      +                          gs = width = 0;
  3134     06DE  01E7               	clrf	_width
  3135     06DF  01E8               	clrf	_width+1
  3136     06E0  3000               	movlw	0
  3137     06E1  00EB               	movwf	_flags
  3138     06E2                     l2696:
  3139                           
  3140                           ;C:\Program Files\Microchip\xc8\v3.00\pic\sources\c99\common\doprnt.c: 1205:         pre
      +                          c = -1;
  3141     06E2  30FF               	movlw	255
  3142     06E3  00E9               	movwf	_prec
  3143     06E4  30FF               	movlw	255
  3144     06E5  00EA               	movwf	_prec+1
  3145     06E6                     l2698:
  3146                           
  3147                           ;C:\Program Files\Microchip\xc8\v3.00\pic\sources\c99\common\doprnt.c: 1439:   if (0
  3148     06E6  082F               	movf	vfpfcnvrt@fmt,w
  3149     06E7  0084               	movwf	4
  3150     06E8  0800               	movf	0,w
  3151     06E9  00B7               	movwf	vfpfcnvrt@cp
  3152     06EA                     l2700:
  3153     06EA  0837               	movf	vfpfcnvrt@cp,w
  3154     06EB  0084               	movwf	4
  3155     06EC  120A  158A  200A  120A  118A  	fcall	stringdir
  3156     06F1  3A75               	xorlw	117
  3157     06F2  1D03               	skipz
  3158     06F3  2EF5               	goto	u2751
  3159     06F4  2EF6               	goto	u2750
  3160     06F5                     u2751:
  3161     06F5  2F6C               	goto	l2724
  3162     06F6                     u2750:
  3163     06F6                     l2702:
  3164                           
  3165                           ;C:\Program Files\Microchip\xc8\v3.00\pic\sources\c99\common\doprnt.c: 1452:     ) {;C:\
      +                          Program Files\Microchip\xc8\v3.00\pic\sources\c99\common\doprnt.c: 1495:    convarg.uint
      +                           = (vfpf_uint_t)(unsigned int)(*(unsigned int *)__va_arg(*(unsigned int **)ap, (unsigned
      +                           int)0));
  3166     06F6  0830               	movf	vfpfcnvrt@ap,w
  3167     06F7  0084               	movwf	4
  3168     06F8  0800               	movf	0,w
  3169     06F9  00FF               	movwf	btemp+1
  3170     06FA  3002               	movlw	2
  3171     06FB  0780               	addwf	0,f
  3172     06FC  087F               	movf	btemp+1,w
  3173     06FD  0084               	movwf	4
  3174     06FE  0800               	movf	0,w
  3175     06FF  00B3               	movwf	vfpfcnvrt@convarg
  3176     0700  0A84               	incf	4,f
  3177     0701  0800               	movf	0,w
  3178     0702  00B4               	movwf	vfpfcnvrt@convarg+1
  3179     0703                     l2704:
  3180                           
  3181                           ;C:\Program Files\Microchip\xc8\v3.00\pic\sources\c99\common\doprnt.c: 1497:    *fmt = c
      +                          p+1;
  3182     0703  082F               	movf	vfpfcnvrt@fmt,w
  3183     0704  0084               	movwf	4
  3184     0705  0837               	movf	vfpfcnvrt@cp,w
  3185     0706  3E01               	addlw	1
  3186     0707  0080               	movwf	0
  3187                           
  3188                           ;C:\Program Files\Microchip\xc8\v3.00\pic\sources\c99\common\doprnt.c: 1498:    switch (
      +                          *cp) {
  3189     0708  2F61               	goto	l2722
  3190     0709                     l912:	
  3191                           ;C:\Program Files\Microchip\xc8\v3.00\pic\sources\c99\common\doprnt.c: 1523:     case 'u
      +                          ':
  3192                           
  3193                           
  3194                           ;C:\Program Files\Microchip\xc8\v3.00\pic\sources\c99\common\doprnt.c: 1525:      c = si
      +                          zeof(dbuf);
  3195     0709  3020               	movlw	32
  3196     070A  00B8               	movwf	vfpfcnvrt@c
  3197     070B                     l2706:
  3198                           
  3199                           ;C:\Program Files\Microchip\xc8\v3.00\pic\sources\c99\common\doprnt.c: 1527:       dbuf[
      +                          --c] = (convarg.uint % 10) + '0';
  3200     070B  3001               	movlw	1
  3201     070C  02B8               	subwf	vfpfcnvrt@c,f
  3202     070D  0838               	movf	vfpfcnvrt@c,w
  3203     070E  3E90               	addlw	(low (_dbuf| (0+256)))& (0+255)
  3204     070F  0084               	movwf	4
  3205     0710  300A               	movlw	10
  3206     0711  00A0               	movwf	___lwmod@divisor
  3207     0712  3000               	movlw	0
  3208     0713  00A1               	movwf	___lwmod@divisor+1
  3209     0714  0834               	movf	vfpfcnvrt@convarg+1,w
  3210     0715  00A3               	movwf	___lwmod@dividend+1
  3211     0716  0833               	movf	vfpfcnvrt@convarg,w
  3212     0717  00A2               	movwf	___lwmod@dividend
  3213     0718  120A  158A  244C  120A  118A  	fcall	___lwmod
  3214     071D  1283               	bcf	3,5	;RP0=0, select bank0
  3215     071E  1303               	bcf	3,6	;RP1=0, select bank0
  3216     071F  0820               	movf	?___lwmod,w
  3217     0720  3E30               	addlw	48
  3218     0721  1783               	bsf	3,7	;select IRP bank3
  3219     0722  0080               	movwf	0
  3220     0723                     l2708:
  3221                           
  3222                           ;C:\Program Files\Microchip\xc8\v3.00\pic\sources\c99\common\doprnt.c: 1528:       conva
      +                          rg.uint /= 10;
  3223     0723  300A               	movlw	10
  3224     0724  00A0               	movwf	___lwdiv@divisor
  3225     0725  3000               	movlw	0
  3226     0726  00A1               	movwf	___lwdiv@divisor+1
  3227     0727  0834               	movf	vfpfcnvrt@convarg+1,w
  3228     0728  00A3               	movwf	___lwdiv@dividend+1
  3229     0729  0833               	movf	vfpfcnvrt@convarg,w
  3230     072A  00A2               	movwf	___lwdiv@dividend
  3231     072B  120A  158A  2504  120A  118A  	fcall	___lwdiv
  3232     0730  1283               	bcf	3,5	;RP0=0, select bank0
  3233     0731  1303               	bcf	3,6	;RP1=0, select bank0
  3234     0732  0821               	movf	?___lwdiv+1,w
  3235     0733  00B4               	movwf	vfpfcnvrt@convarg+1
  3236     0734  0820               	movf	?___lwdiv,w
  3237     0735  00B3               	movwf	vfpfcnvrt@convarg
  3238     0736                     l2710:
  3239                           
  3240                           ;C:\Program Files\Microchip\xc8\v3.00\pic\sources\c99\common\doprnt.c: 1532:      } whil
      +                          e (convarg.uint != 0 && c != 0);
  3241     0736  0833               	movf	vfpfcnvrt@convarg,w
  3242     0737  0434               	iorwf	vfpfcnvrt@convarg+1,w
  3243     0738  1903               	btfsc	3,2
  3244     0739  2F3B               	goto	u2761
  3245     073A  2F3C               	goto	u2760
  3246     073B                     u2761:
  3247     073B  2F5A               	goto	l2718
  3248     073C                     u2760:
  3249     073C                     l2712:
  3250     073C  0838               	movf	vfpfcnvrt@c,w
  3251     073D  1D03               	btfss	3,2
  3252     073E  2F40               	goto	u2771
  3253     073F  2F41               	goto	u2770
  3254     0740                     u2771:
  3255     0740  2F0B               	goto	l2706
  3256     0741                     u2770:
  3257     0741  2F5A               	goto	l2718
  3258     0742                     l2714:
  3259                           
  3260                           ;C:\Program Files\Microchip\xc8\v3.00\pic\sources\c99\common\doprnt.c: 1534:       fputc
      +                          (dbuf[c++], fp);
  3261     0742  0838               	movf	vfpfcnvrt@c,w
  3262     0743  3E90               	addlw	(low (_dbuf| (0+256)))& (0+255)
  3263     0744  0084               	movwf	4
  3264     0745  1783               	bsf	3,7	;select IRP bank3
  3265     0746  0800               	movf	0,w
  3266     0747  00B1               	movwf	??_vfpfcnvrt
  3267     0748  01B2               	clrf	??_vfpfcnvrt+1
  3268     0749  0831               	movf	??_vfpfcnvrt,w
  3269     074A  00A0               	movwf	fputc@c
  3270     074B  0832               	movf	??_vfpfcnvrt+1,w
  3271     074C  00A1               	movwf	fputc@c+1
  3272     074D  082D               	movf	vfpfcnvrt@fp,w
  3273     074E  00A2               	movwf	fputc@fp
  3274     074F  082E               	movf	vfpfcnvrt@fp+1,w
  3275     0750  00A3               	movwf	fputc@fp+1
  3276     0751  120A  158A  2760  120A  118A  	fcall	_fputc
  3277     0756                     l2716:
  3278     0756  3001               	movlw	1
  3279     0757  1283               	bcf	3,5	;RP0=0, select bank0
  3280     0758  1303               	bcf	3,6	;RP1=0, select bank0
  3281     0759  07B8               	addwf	vfpfcnvrt@c,f
  3282     075A                     l2718:
  3283                           
  3284                           ;C:\Program Files\Microchip\xc8\v3.00\pic\sources\c99\common\doprnt.c: 1533:      while 
      +                          (c != sizeof(dbuf)) {
  3285     075A  3020               	movlw	32
  3286     075B  0638               	xorwf	vfpfcnvrt@c,w
  3287     075C  1D03               	btfss	3,2
  3288     075D  2F5F               	goto	u2781
  3289     075E  2F60               	goto	u2780
  3290     075F                     u2781:
  3291     075F  2F42               	goto	l2714
  3292     0760                     u2780:
  3293     0760  2F8D               	goto	l920
  3294     0761                     l2722:
  3295     0761  0837               	movf	vfpfcnvrt@cp,w
  3296     0762  0084               	movwf	4
  3297     0763  120A  158A  200A  120A  118A  	fcall	stringdir
  3298                           
  3299                           ; Switch size 1, requested type "simple"
  3300                           ; Number of cases is 1, Range of values is 117 to 117
  3301                           ; switch strategies available:
  3302                           ; Name         Instructions Cycles
  3303                           ; simple_byte            4     3 (average)
  3304                           ; direct_byte           14    11 (fixed)
  3305                           ; jumptable            263     9 (fixed)
  3306                           ;	Chosen strategy is simple_byte
  3307     0768  3A75               	xorlw	117	; case 117
  3308     0769  1903               	skipnz
  3309     076A  2F09               	goto	l912
  3310     076B  2F6C               	goto	l2724
  3311     076C                     l2724:
  3312                           
  3313                           ;C:\Program Files\Microchip\xc8\v3.00\pic\sources\c99\common\doprnt.c: 1806:         ++*
      +                          fmt;
  3314     076C  1283               	bcf	3,5	;RP0=0, select bank0
  3315     076D  1303               	bcf	3,6	;RP1=0, select bank0
  3316     076E  082F               	movf	vfpfcnvrt@fmt,w
  3317     076F  0084               	movwf	4
  3318     0770  3001               	movlw	1
  3319     0771  1383               	bcf	3,7	;select IRP bank0
  3320     0772  0780               	addwf	0,f
  3321     0773  2F8D               	goto	l920
  3322     0774                     l2728:
  3323                           
  3324                           ;C:\Program Files\Microchip\xc8\v3.00\pic\sources\c99\common\doprnt.c: 1811:     fputc((
      +                          int)(*fmt)[0], fp);
  3325     0774  082F               	movf	vfpfcnvrt@fmt,w
  3326     0775  0084               	movwf	4
  3327     0776  0800               	movf	0,w
  3328     0777  0084               	movwf	4
  3329     0778  120A  158A  200A  120A  118A  	fcall	stringdir
  3330     077D  00B1               	movwf	??_vfpfcnvrt
  3331     077E  01B2               	clrf	??_vfpfcnvrt+1
  3332     077F  0831               	movf	??_vfpfcnvrt,w
  3333     0780  00A0               	movwf	fputc@c
  3334     0781  0832               	movf	??_vfpfcnvrt+1,w
  3335     0782  00A1               	movwf	fputc@c+1
  3336     0783  082D               	movf	vfpfcnvrt@fp,w
  3337     0784  00A2               	movwf	fputc@fp
  3338     0785  082E               	movf	vfpfcnvrt@fp+1,w
  3339     0786  00A3               	movwf	fputc@fp+1
  3340     0787  120A  158A  2760  120A  118A  	fcall	_fputc
  3341     078C  2F6C               	goto	l2724
  3342     078D                     l920:
  3343     078D  0008               	return
  3344     078E                     __end_of_vfpfcnvrt:
  3345                           
  3346                           	psect	text6
  3347     0F60                     __ptext6:	
  3348 ;; *************** function _fputc *****************
  3349 ;; Defined at:
  3350 ;;		line 8 in file "C:\Program Files\Microchip\xc8\v3.00\pic\sources\c99\common\nf_fputc.c"
  3351 ;; Parameters:    Size  Location     Type
  3352 ;;  c               2    0[BANK0 ] int 
  3353 ;;  fp              2    2[BANK0 ] PTR struct _IO_FILE
  3354 ;;		 -> sprintf@f(11), 
  3355 ;; Auto vars:     Size  Location     Type
  3356 ;;		None
  3357 ;; Return value:  Size  Location     Type
  3358 ;;                  2    0[BANK0 ] int 
  3359 ;; Registers used:
  3360 ;;		wreg, fsr0l, fsr0h, status,2, status,0, pclath, cstack
  3361 ;; Tracked objects:
  3362 ;;		On entry : 0/0
  3363 ;;		On exit  : 0/0
  3364 ;;		Unchanged: 0/0
  3365 ;; Data sizes:     COMMON   BANK0   BANK1   BANK3   BANK2
  3366 ;;      Params:         0       4       0       0       0
  3367 ;;      Locals:         0       0       0       0       0
  3368 ;;      Temps:          0       9       0       0       0
  3369 ;;      Totals:         0      13       0       0       0
  3370 ;;Total ram usage:       13 bytes
  3371 ;; Hardware stack levels used: 1
  3372 ;; Hardware stack levels required when called: 2
  3373 ;; This function calls:
  3374 ;;		_putch
  3375 ;; This function is called by:
  3376 ;;		_vfpfcnvrt
  3377 ;; This function uses a non-reentrant model
  3378 ;;
  3379                           
  3380     0F60                     _fputc:	
  3381                           ;psect for function _fputc
  3382                           
  3383     0F60                     l2668:	
  3384                           ;incstack = 0
  3385                           ; Regs used in _fputc: [wreg-fsr0h+status,2+status,0+pclath+cstack]
  3386                           
  3387     0F60  1283               	bcf	3,5	;RP0=0, select bank0
  3388     0F61  1303               	bcf	3,6	;RP1=0, select bank0
  3389     0F62  0822               	movf	fputc@fp,w
  3390     0F63  0423               	iorwf	fputc@fp+1,w
  3391     0F64  1903               	btfsc	3,2
  3392     0F65  2F67               	goto	u2691
  3393     0F66  2F68               	goto	u2690
  3394     0F67                     u2691:
  3395     0F67  2F6E               	goto	l2672
  3396     0F68                     u2690:
  3397     0F68                     l2670:
  3398     0F68  0822               	movf	fputc@fp,w
  3399     0F69  0423               	iorwf	fputc@fp+1,w
  3400     0F6A  1D03               	btfss	3,2
  3401     0F6B  2F6D               	goto	u2701
  3402     0F6C  2F6E               	goto	u2700
  3403     0F6D                     u2701:
  3404     0F6D  2F75               	goto	l2674
  3405     0F6E                     u2700:
  3406     0F6E                     l2672:
  3407     0F6E  0820               	movf	fputc@c,w
  3408     0F6F  120A  118A  27FF  120A  158A  	fcall	_putch
  3409     0F74  2FFF               	goto	l939
  3410     0F75                     l2674:
  3411     0F75  0822               	movf	fputc@fp,w
  3412     0F76  3E09               	addlw	9
  3413     0F77  00A4               	movwf	??_fputc
  3414     0F78  0823               	movf	fputc@fp+1,w
  3415     0F79  1803               	skipnc
  3416     0F7A  3E01               	addlw	1
  3417     0F7B  3E00               	addlw	0
  3418     0F7C  00A5               	movwf	??_fputc+1
  3419     0F7D  0824               	movf	??_fputc,w
  3420     0F7E  0084               	movwf	4
  3421     0F7F  1783               	bsf	3,7
  3422     0F80  1C25               	btfss	??_fputc+1,0
  3423     0F81  1383               	bcf	3,7
  3424     0F82  0800               	movf	0,w
  3425     0F83  00A6               	movwf	??_fputc+2
  3426     0F84  0A84               	incf	4,f
  3427     0F85  0800               	movf	0,w
  3428     0F86  00A7               	movwf	??_fputc+3
  3429     0F87  0826               	movf	??_fputc+2,w
  3430     0F88  0427               	iorwf	??_fputc+3,w
  3431     0F89  1903               	btfsc	3,2
  3432     0F8A  2F8C               	goto	u2711
  3433     0F8B  2F8D               	goto	u2710
  3434     0F8C                     u2711:
  3435     0F8C  2FBF               	goto	l2678
  3436     0F8D                     u2710:
  3437     0F8D                     l2676:
  3438     0F8D  0822               	movf	fputc@fp,w
  3439     0F8E  3E09               	addlw	9
  3440     0F8F  00A4               	movwf	??_fputc
  3441     0F90  0823               	movf	fputc@fp+1,w
  3442     0F91  1803               	skipnc
  3443     0F92  3E01               	addlw	1
  3444     0F93  3E00               	addlw	0
  3445     0F94  00A5               	movwf	??_fputc+1
  3446     0F95  0824               	movf	??_fputc,w
  3447     0F96  0084               	movwf	4
  3448     0F97  1783               	bsf	3,7
  3449     0F98  1C25               	btfss	??_fputc+1,0
  3450     0F99  1383               	bcf	3,7
  3451     0F9A  0800               	movf	0,w
  3452     0F9B  00A6               	movwf	??_fputc+2
  3453     0F9C  0A84               	incf	4,f
  3454     0F9D  0800               	movf	0,w
  3455     0F9E  00A7               	movwf	??_fputc+3
  3456     0F9F  0822               	movf	fputc@fp,w
  3457     0FA0  3E02               	addlw	2
  3458     0FA1  00A8               	movwf	??_fputc+4
  3459     0FA2  0823               	movf	fputc@fp+1,w
  3460     0FA3  1803               	skipnc
  3461     0FA4  3E01               	addlw	1
  3462     0FA5  3E00               	addlw	0
  3463     0FA6  00A9               	movwf	??_fputc+5
  3464     0FA7  0828               	movf	??_fputc+4,w
  3465     0FA8  0084               	movwf	4
  3466     0FA9  1783               	bsf	3,7
  3467     0FAA  1C29               	btfss	??_fputc+5,0
  3468     0FAB  1383               	bcf	3,7
  3469     0FAC  0800               	movf	0,w
  3470     0FAD  00AA               	movwf	??_fputc+6
  3471     0FAE  0A84               	incf	4,f
  3472     0FAF  0800               	movf	0,w
  3473     0FB0  00AB               	movwf	??_fputc+7
  3474     0FB1  082B               	movf	??_fputc+7,w
  3475     0FB2  3A80               	xorlw	128
  3476     0FB3  00AC               	movwf	??_fputc+8
  3477     0FB4  0827               	movf	??_fputc+3,w
  3478     0FB5  3A80               	xorlw	128
  3479     0FB6  022C               	subwf	??_fputc+8,w
  3480     0FB7  1D03               	skipz
  3481     0FB8  2FBB               	goto	u2725
  3482     0FB9  0826               	movf	??_fputc+2,w
  3483     0FBA  022A               	subwf	??_fputc+6,w
  3484     0FBB                     u2725:
  3485     0FBB  1803               	skipnc
  3486     0FBC  2FBE               	goto	u2721
  3487     0FBD  2FBF               	goto	u2720
  3488     0FBE                     u2721:
  3489     0FBE  2FFF               	goto	l939
  3490     0FBF                     u2720:
  3491     0FBF                     l2678:
  3492     0FBF  1283               	bcf	3,5	;RP0=0, select bank0
  3493     0FC0  1303               	bcf	3,6	;RP1=0, select bank0
  3494     0FC1  0822               	movf	fputc@fp,w
  3495     0FC2  0084               	movwf	4
  3496     0FC3  1783               	bsf	3,7
  3497     0FC4  1C23               	btfss	fputc@fp+1,0
  3498     0FC5  1383               	bcf	3,7
  3499     0FC6  0800               	movf	0,w
  3500     0FC7  00A4               	movwf	??_fputc
  3501     0FC8  0A84               	incf	4,f
  3502     0FC9  0800               	movf	0,w
  3503     0FCA  00A5               	movwf	??_fputc+1
  3504     0FCB  0822               	movf	fputc@fp,w
  3505     0FCC  3E02               	addlw	2
  3506     0FCD  00A6               	movwf	??_fputc+2
  3507     0FCE  0823               	movf	fputc@fp+1,w
  3508     0FCF  1803               	skipnc
  3509     0FD0  3E01               	addlw	1
  3510     0FD1  3E00               	addlw	0
  3511     0FD2  00A7               	movwf	??_fputc+3
  3512     0FD3  0826               	movf	??_fputc+2,w
  3513     0FD4  0084               	movwf	4
  3514     0FD5  1783               	bsf	3,7
  3515     0FD6  1C27               	btfss	??_fputc+3,0
  3516     0FD7  1383               	bcf	3,7
  3517     0FD8  0800               	movf	0,w
  3518     0FD9  0724               	addwf	??_fputc,w
  3519     0FDA  00A9               	movwf	??_fputc+5
  3520     0FDB  0825               	movf	??_fputc+1,w
  3521     0FDC  00A8               	movwf	??_fputc+4
  3522     0FDD  1803               	skipnc
  3523     0FDE  0AA8               	incf	??_fputc+4,f
  3524     0FDF  1F80               	btfss	0,7
  3525     0FE0  2FE2               	goto	u2730
  3526     0FE1  03A8               	decf	??_fputc+4,f
  3527     0FE2                     u2730:
  3528     0FE2  1283               	bcf	3,5	;RP0=0, select bank0
  3529     0FE3  1303               	bcf	3,6	;RP1=0, select bank0
  3530     0FE4  0828               	movf	??_fputc+4,w
  3531     0FE5  00AA               	movwf	??_fputc+6
  3532     0FE6  0829               	movf	??_fputc+5,w
  3533     0FE7  0084               	movwf	4
  3534     0FE8  1783               	bsf	3,7
  3535     0FE9  1C2A               	btfss	??_fputc+6,0
  3536     0FEA  1383               	bcf	3,7
  3537     0FEB  0820               	movf	fputc@c,w
  3538     0FEC  0080               	movwf	0
  3539     0FED  0822               	movf	fputc@fp,w
  3540     0FEE  3E02               	addlw	2
  3541     0FEF  00A4               	movwf	??_fputc
  3542     0FF0  0823               	movf	fputc@fp+1,w
  3543     0FF1  1803               	skipnc
  3544     0FF2  3E01               	addlw	1
  3545     0FF3  3E00               	addlw	0
  3546     0FF4  00A5               	movwf	??_fputc+1
  3547     0FF5  0824               	movf	??_fputc,w
  3548     0FF6  0084               	movwf	4
  3549     0FF7  1783               	bsf	3,7
  3550     0FF8  1C25               	btfss	??_fputc+1,0
  3551     0FF9  1383               	bcf	3,7
  3552     0FFA  3001               	movlw	1
  3553     0FFB  0780               	addwf	0,f
  3554     0FFC  0A84               	incf	4,f
  3555     0FFD  1803               	skipnc
  3556     0FFE  0A80               	incf	0,f
  3557     0FFF                     l939:
  3558     0FFF  0008               	return
  3559     1000                     __end_of_fputc:
  3560                           
  3561                           	psect	text7
  3562     07FF                     __ptext7:	
  3563 ;; *************** function _putch *****************
  3564 ;; Defined at:
  3565 ;;		line 7 in file "C:\Program Files\Microchip\xc8\v3.00\pic\sources\c99\common\putch.c"
  3566 ;; Parameters:    Size  Location     Type
  3567 ;;  c               1    wreg     unsigned char 
  3568 ;; Auto vars:     Size  Location     Type
  3569 ;;  c               1    0[COMMON] unsigned char 
  3570 ;; Return value:  Size  Location     Type
  3571 ;;                  1    wreg      void 
  3572 ;; Registers used:
  3573 ;;		wreg
  3574 ;; Tracked objects:
  3575 ;;		On entry : 0/0
  3576 ;;		On exit  : 0/0
  3577 ;;		Unchanged: 0/0
  3578 ;; Data sizes:     COMMON   BANK0   BANK1   BANK3   BANK2
  3579 ;;      Params:         0       0       0       0       0
  3580 ;;      Locals:         0       0       0       0       0
  3581 ;;      Temps:          0       0       0       0       0
  3582 ;;      Totals:         0       0       0       0       0
  3583 ;;Total ram usage:        0 bytes
  3584 ;; Hardware stack levels used: 1
  3585 ;; Hardware stack levels required when called: 1
  3586 ;; This function calls:
  3587 ;;		Nothing
  3588 ;; This function is called by:
  3589 ;;		_fputc
  3590 ;; This function uses a non-reentrant model
  3591 ;;
  3592                           
  3593     07FF                     _putch:	
  3594                           ;psect for function _putch
  3595                           
  3596     07FF                     l950:	
  3597                           ;incstack = 0
  3598                           ; Regs used in _putch: [wreg]
  3599                           
  3600     07FF  0008               	return
  3601     0800                     __end_of_putch:
  3602                           
  3603                           	psect	text8
  3604     0C4C                     __ptext8:	
  3605 ;; *************** function ___lwmod *****************
  3606 ;; Defined at:
  3607 ;;		line 5 in file "C:\Program Files\Microchip\xc8\v3.00\pic\sources\c99\common\lwmod.c"
  3608 ;; Parameters:    Size  Location     Type
  3609 ;;  divisor         2    0[BANK0 ] unsigned int 
  3610 ;;  dividend        2    2[BANK0 ] unsigned int 
  3611 ;; Auto vars:     Size  Location     Type
  3612 ;;  counter         1    4[COMMON] unsigned char 
  3613 ;; Return value:  Size  Location     Type
  3614 ;;                  2    0[BANK0 ] unsigned int 
  3615 ;; Registers used:
  3616 ;;		wreg, status,2, status,0
  3617 ;; Tracked objects:
  3618 ;;		On entry : 0/0
  3619 ;;		On exit  : 0/0
  3620 ;;		Unchanged: 0/0
  3621 ;; Data sizes:     COMMON   BANK0   BANK1   BANK3   BANK2
  3622 ;;      Params:         0       4       0       0       0
  3623 ;;      Locals:         1       0       0       0       0
  3624 ;;      Temps:          0       0       0       0       0
  3625 ;;      Totals:         1       4       0       0       0
  3626 ;;Total ram usage:        5 bytes
  3627 ;; Hardware stack levels used: 1
  3628 ;; Hardware stack levels required when called: 1
  3629 ;; This function calls:
  3630 ;;		Nothing
  3631 ;; This function is called by:
  3632 ;;		_vfpfcnvrt
  3633 ;;		_UART_TxUInt
  3634 ;; This function uses a non-reentrant model
  3635 ;;
  3636                           
  3637     0C4C                     ___lwmod:	
  3638                           ;psect for function ___lwmod
  3639                           
  3640     0C4C                     l2646:	
  3641                           ;incstack = 0
  3642                           ; Regs used in ___lwmod: [wreg+status,2+status,0]
  3643                           
  3644     0C4C  1283               	bcf	3,5	;RP0=0, select bank0
  3645     0C4D  1303               	bcf	3,6	;RP1=0, select bank0
  3646     0C4E  0820               	movf	___lwmod@divisor,w
  3647     0C4F  0421               	iorwf	___lwmod@divisor+1,w
  3648     0C50  1903               	btfsc	3,2
  3649     0C51  2C53               	goto	u2631
  3650     0C52  2C54               	goto	u2630
  3651     0C53                     u2631:
  3652     0C53  2C81               	goto	l2664
  3653     0C54                     u2630:
  3654     0C54                     l2648:
  3655     0C54  3001               	movlw	1
  3656     0C55  00F4               	movwf	___lwmod@counter
  3657     0C56  2C60               	goto	l2654
  3658     0C57                     l2650:
  3659     0C57  3001               	movlw	1
  3660     0C58                     u2645:
  3661     0C58  1003               	clrc
  3662     0C59  0DA0               	rlf	___lwmod@divisor,f
  3663     0C5A  0DA1               	rlf	___lwmod@divisor+1,f
  3664     0C5B  3EFF               	addlw	-1
  3665     0C5C  1D03               	skipz
  3666     0C5D  2C58               	goto	u2645
  3667     0C5E                     l2652:
  3668     0C5E  3001               	movlw	1
  3669     0C5F  07F4               	addwf	___lwmod@counter,f
  3670     0C60                     l2654:
  3671     0C60  1FA1               	btfss	___lwmod@divisor+1,7
  3672     0C61  2C63               	goto	u2651
  3673     0C62  2C64               	goto	u2650
  3674     0C63                     u2651:
  3675     0C63  2C57               	goto	l2650
  3676     0C64                     u2650:
  3677     0C64                     l2656:
  3678     0C64  0821               	movf	___lwmod@divisor+1,w
  3679     0C65  0223               	subwf	___lwmod@dividend+1,w
  3680     0C66  1D03               	skipz
  3681     0C67  2C6A               	goto	u2665
  3682     0C68  0820               	movf	___lwmod@divisor,w
  3683     0C69  0222               	subwf	___lwmod@dividend,w
  3684     0C6A                     u2665:
  3685     0C6A  1C03               	skipc
  3686     0C6B  2C6D               	goto	u2661
  3687     0C6C  2C6E               	goto	u2660
  3688     0C6D                     u2661:
  3689     0C6D  2C74               	goto	l2660
  3690     0C6E                     u2660:
  3691     0C6E                     l2658:
  3692     0C6E  0820               	movf	___lwmod@divisor,w
  3693     0C6F  02A2               	subwf	___lwmod@dividend,f
  3694     0C70  0821               	movf	___lwmod@divisor+1,w
  3695     0C71  1C03               	skipc
  3696     0C72  03A3               	decf	___lwmod@dividend+1,f
  3697     0C73  02A3               	subwf	___lwmod@dividend+1,f
  3698     0C74                     l2660:
  3699     0C74  3001               	movlw	1
  3700     0C75                     u2675:
  3701     0C75  1003               	clrc
  3702     0C76  0CA1               	rrf	___lwmod@divisor+1,f
  3703     0C77  0CA0               	rrf	___lwmod@divisor,f
  3704     0C78  3EFF               	addlw	-1
  3705     0C79  1D03               	skipz
  3706     0C7A  2C75               	goto	u2675
  3707     0C7B                     l2662:
  3708     0C7B  3001               	movlw	1
  3709     0C7C  02F4               	subwf	___lwmod@counter,f
  3710     0C7D  1D03               	btfss	3,2
  3711     0C7E  2C80               	goto	u2681
  3712     0C7F  2C81               	goto	u2680
  3713     0C80                     u2681:
  3714     0C80  2C64               	goto	l2656
  3715     0C81                     u2680:
  3716     0C81                     l2664:
  3717     0C81  0823               	movf	___lwmod@dividend+1,w
  3718     0C82  00A1               	movwf	?___lwmod+1
  3719     0C83  0822               	movf	___lwmod@dividend,w
  3720     0C84  00A0               	movwf	?___lwmod
  3721     0C85                     l710:
  3722     0C85  0008               	return
  3723     0C86                     __end_of___lwmod:
  3724                           
  3725                           	psect	text9
  3726     0D04                     __ptext9:	
  3727 ;; *************** function ___lwdiv *****************
  3728 ;; Defined at:
  3729 ;;		line 5 in file "C:\Program Files\Microchip\xc8\v3.00\pic\sources\c99\common\lwdiv.c"
  3730 ;; Parameters:    Size  Location     Type
  3731 ;;  divisor         2    0[BANK0 ] unsigned int 
  3732 ;;  dividend        2    2[BANK0 ] unsigned int 
  3733 ;; Auto vars:     Size  Location     Type
  3734 ;;  quotient        2    5[COMMON] unsigned int 
  3735 ;;  counter         1    4[COMMON] unsigned char 
  3736 ;; Return value:  Size  Location     Type
  3737 ;;                  2    0[BANK0 ] unsigned int 
  3738 ;; Registers used:
  3739 ;;		wreg, status,2, status,0
  3740 ;; Tracked objects:
  3741 ;;		On entry : 0/0
  3742 ;;		On exit  : 0/0
  3743 ;;		Unchanged: 0/0
  3744 ;; Data sizes:     COMMON   BANK0   BANK1   BANK3   BANK2
  3745 ;;      Params:         0       4       0       0       0
  3746 ;;      Locals:         3       0       0       0       0
  3747 ;;      Temps:          0       0       0       0       0
  3748 ;;      Totals:         3       4       0       0       0
  3749 ;;Total ram usage:        7 bytes
  3750 ;; Hardware stack levels used: 1
  3751 ;; Hardware stack levels required when called: 1
  3752 ;; This function calls:
  3753 ;;		Nothing
  3754 ;; This function is called by:
  3755 ;;		_process_heart_rate
  3756 ;;		_vfpfcnvrt
  3757 ;;		_UART_TxUInt
  3758 ;; This function uses a non-reentrant model
  3759 ;;
  3760                           
  3761     0D04                     ___lwdiv:	
  3762                           ;psect for function ___lwdiv
  3763                           
  3764     0D04                     l2620:	
  3765                           ;incstack = 0
  3766                           ; Regs used in ___lwdiv: [wreg+status,2+status,0]
  3767                           
  3768     0D04  01F5               	clrf	___lwdiv@quotient
  3769     0D05  01F6               	clrf	___lwdiv@quotient+1
  3770     0D06                     l2622:
  3771     0D06  1283               	bcf	3,5	;RP0=0, select bank0
  3772     0D07  1303               	bcf	3,6	;RP1=0, select bank0
  3773     0D08  0820               	movf	___lwdiv@divisor,w
  3774     0D09  0421               	iorwf	___lwdiv@divisor+1,w
  3775     0D0A  1903               	btfsc	3,2
  3776     0D0B  2D0D               	goto	u2561
  3777     0D0C  2D0E               	goto	u2560
  3778     0D0D                     u2561:
  3779     0D0D  2D43               	goto	l2642
  3780     0D0E                     u2560:
  3781     0D0E                     l2624:
  3782     0D0E  3001               	movlw	1
  3783     0D0F  00F4               	movwf	___lwdiv@counter
  3784     0D10  2D1A               	goto	l2630
  3785     0D11                     l2626:
  3786     0D11  3001               	movlw	1
  3787     0D12                     u2575:
  3788     0D12  1003               	clrc
  3789     0D13  0DA0               	rlf	___lwdiv@divisor,f
  3790     0D14  0DA1               	rlf	___lwdiv@divisor+1,f
  3791     0D15  3EFF               	addlw	-1
  3792     0D16  1D03               	skipz
  3793     0D17  2D12               	goto	u2575
  3794     0D18                     l2628:
  3795     0D18  3001               	movlw	1
  3796     0D19  07F4               	addwf	___lwdiv@counter,f
  3797     0D1A                     l2630:
  3798     0D1A  1FA1               	btfss	___lwdiv@divisor+1,7
  3799     0D1B  2D1D               	goto	u2581
  3800     0D1C  2D1E               	goto	u2580
  3801     0D1D                     u2581:
  3802     0D1D  2D11               	goto	l2626
  3803     0D1E                     u2580:
  3804     0D1E                     l2632:
  3805     0D1E  3001               	movlw	1
  3806     0D1F                     u2595:
  3807     0D1F  1003               	clrc
  3808     0D20  0DF5               	rlf	___lwdiv@quotient,f
  3809     0D21  0DF6               	rlf	___lwdiv@quotient+1,f
  3810     0D22  3EFF               	addlw	-1
  3811     0D23  1D03               	skipz
  3812     0D24  2D1F               	goto	u2595
  3813     0D25  0821               	movf	___lwdiv@divisor+1,w
  3814     0D26  0223               	subwf	___lwdiv@dividend+1,w
  3815     0D27  1D03               	skipz
  3816     0D28  2D2B               	goto	u2605
  3817     0D29  0820               	movf	___lwdiv@divisor,w
  3818     0D2A  0222               	subwf	___lwdiv@dividend,w
  3819     0D2B                     u2605:
  3820     0D2B  1C03               	skipc
  3821     0D2C  2D2E               	goto	u2601
  3822     0D2D  2D2F               	goto	u2600
  3823     0D2E                     u2601:
  3824     0D2E  2D36               	goto	l2638
  3825     0D2F                     u2600:
  3826     0D2F                     l2634:
  3827     0D2F  0820               	movf	___lwdiv@divisor,w
  3828     0D30  02A2               	subwf	___lwdiv@dividend,f
  3829     0D31  0821               	movf	___lwdiv@divisor+1,w
  3830     0D32  1C03               	skipc
  3831     0D33  03A3               	decf	___lwdiv@dividend+1,f
  3832     0D34  02A3               	subwf	___lwdiv@dividend+1,f
  3833     0D35                     l2636:
  3834     0D35  1475               	bsf	___lwdiv@quotient,0
  3835     0D36                     l2638:
  3836     0D36  3001               	movlw	1
  3837     0D37                     u2615:
  3838     0D37  1003               	clrc
  3839     0D38  0CA1               	rrf	___lwdiv@divisor+1,f
  3840     0D39  0CA0               	rrf	___lwdiv@divisor,f
  3841     0D3A  3EFF               	addlw	-1
  3842     0D3B  1D03               	skipz
  3843     0D3C  2D37               	goto	u2615
  3844     0D3D                     l2640:
  3845     0D3D  3001               	movlw	1
  3846     0D3E  02F4               	subwf	___lwdiv@counter,f
  3847     0D3F  1D03               	btfss	3,2
  3848     0D40  2D42               	goto	u2621
  3849     0D41  2D43               	goto	u2620
  3850     0D42                     u2621:
  3851     0D42  2D1E               	goto	l2632
  3852     0D43                     u2620:
  3853     0D43                     l2642:
  3854     0D43  0876               	movf	___lwdiv@quotient+1,w
  3855     0D44  00A1               	movwf	?___lwdiv+1
  3856     0D45  0875               	movf	___lwdiv@quotient,w
  3857     0D46  00A0               	movwf	?___lwdiv
  3858     0D47                     l700:
  3859     0D47  0008               	return
  3860     0D48                     __end_of___lwdiv:
  3861                           
  3862                           	psect	text10
  3863     0A83                     __ptext10:	
  3864 ;; *************** function _UART_TxString *****************
  3865 ;; Defined at:
  3866 ;;		line 50 in file "main.c"
  3867 ;; Parameters:    Size  Location     Type
  3868 ;;  s               1    5[COMMON] PTR const unsigned char 
  3869 ;;		 -> STR_12(3), STR_10(3), STR_8(3), STR_4(3), 
  3870 ;;		 -> STR_1(3), 
  3871 ;; Auto vars:     Size  Location     Type
  3872 ;;		None
  3873 ;; Return value:  Size  Location     Type
  3874 ;;                  1    wreg      void 
  3875 ;; Registers used:
  3876 ;;		wreg, fsr0l, fsr0h, status,2, status,0, pclath, cstack
  3877 ;; Tracked objects:
  3878 ;;		On entry : 0/0
  3879 ;;		On exit  : 0/0
  3880 ;;		Unchanged: 0/0
  3881 ;; Data sizes:     COMMON   BANK0   BANK1   BANK3   BANK2
  3882 ;;      Params:         1       0       0       0       0
  3883 ;;      Locals:         0       0       0       0       0
  3884 ;;      Temps:          0       0       0       0       0
  3885 ;;      Totals:         1       0       0       0       0
  3886 ;;Total ram usage:        1 bytes
  3887 ;; Hardware stack levels used: 1
  3888 ;; Hardware stack levels required when called: 2
  3889 ;; This function calls:
  3890 ;;		_UART_TxChar
  3891 ;; This function is called by:
  3892 ;;		_update_bpm
  3893 ;;		_main
  3894 ;; This function uses a non-reentrant model
  3895 ;;
  3896                           
  3897     0A83                     _UART_TxString:	
  3898                           ;psect for function _UART_TxString
  3899                           
  3900     0A83                     l2762:	
  3901                           ;incstack = 0
  3902                           ; Regs used in _UART_TxString: [wreg-fsr0h+status,2+status,0+pclath+cstack]
  3903                           
  3904     0A83  2A92               	goto	l2768
  3905     0A84                     l2764:
  3906     0A84  0875               	movf	UART_TxString@s,w
  3907     0A85  0084               	movwf	4
  3908     0A86  120A  158A  200A  120A  158A  	fcall	stringdir
  3909     0A8B  120A  118A  27F4  120A  158A  	fcall	_UART_TxChar
  3910     0A90                     l2766:
  3911     0A90  3001               	movlw	1
  3912     0A91  07F5               	addwf	UART_TxString@s,f
  3913     0A92                     l2768:
  3914     0A92  0875               	movf	UART_TxString@s,w
  3915     0A93  0084               	movwf	4
  3916     0A94  120A  158A  200A  120A  158A  	fcall	stringdir
  3917     0A99  3A00               	xorlw	0
  3918     0A9A  1D03               	skipz
  3919     0A9B  2A9D               	goto	u2831
  3920     0A9C  2A9E               	goto	u2830
  3921     0A9D                     u2831:
  3922     0A9D  2A84               	goto	l2764
  3923     0A9E                     u2830:
  3924     0A9E                     l113:
  3925     0A9E  0008               	return
  3926     0A9F                     __end_of_UART_TxString:
  3927                           
  3928                           	psect	text11
  3929     07F4                     __ptext11:	
  3930 ;; *************** function _UART_TxChar *****************
  3931 ;; Defined at:
  3932 ;;		line 49 in file "main.c"
  3933 ;; Parameters:    Size  Location     Type
  3934 ;;  ch              1    wreg     unsigned char 
  3935 ;; Auto vars:     Size  Location     Type
  3936 ;;  ch              1    4[COMMON] unsigned char 
  3937 ;; Return value:  Size  Location     Type
  3938 ;;                  1    wreg      void 
  3939 ;; Registers used:
  3940 ;;		wreg
  3941 ;; Tracked objects:
  3942 ;;		On entry : 0/0
  3943 ;;		On exit  : 0/0
  3944 ;;		Unchanged: 0/0
  3945 ;; Data sizes:     COMMON   BANK0   BANK1   BANK3   BANK2
  3946 ;;      Params:         0       0       0       0       0
  3947 ;;      Locals:         1       0       0       0       0
  3948 ;;      Temps:          0       0       0       0       0
  3949 ;;      Totals:         1       0       0       0       0
  3950 ;;Total ram usage:        1 bytes
  3951 ;; Hardware stack levels used: 1
  3952 ;; Hardware stack levels required when called: 1
  3953 ;; This function calls:
  3954 ;;		Nothing
  3955 ;; This function is called by:
  3956 ;;		_UART_TxString
  3957 ;;		_UART_TxUInt
  3958 ;;		_UART_TxInt
  3959 ;; This function uses a non-reentrant model
  3960 ;;
  3961                           
  3962     07F4                     _UART_TxChar:	
  3963                           ;psect for function _UART_TxChar
  3964                           
  3965                           
  3966                           ;incstack = 0
  3967                           ; Regs used in _UART_TxChar: [wreg]
  3968                           ;UART_TxChar@ch stored from wreg
  3969     07F4  00F4               	movwf	UART_TxChar@ch
  3970     07F5                     l2734:
  3971     07F5                     l104:
  3972     07F5  1283               	bcf	3,5	;RP0=0, select bank0
  3973     07F6  1303               	bcf	3,6	;RP1=0, select bank0
  3974     07F7  1E0C               	btfss	12,4	;volatile
  3975     07F8  2FFA               	goto	u2791
  3976     07F9  2FFB               	goto	u2790
  3977     07FA                     u2791:
  3978     07FA  2FF5               	goto	l104
  3979     07FB                     u2790:
  3980     07FB                     l2736:
  3981     07FB  0874               	movf	UART_TxChar@ch,w
  3982     07FC  0099               	movwf	25	;volatile
  3983     07FD                     l107:
  3984     07FD  0008               	return
  3985     07FE                     __end_of_UART_TxChar:
  3986                           
  3987                           	psect	text12
  3988     09D4                     __ptext12:	
  3989 ;; *************** function _millis *****************
  3990 ;; Defined at:
  3991 ;;		line 251 in file "main.c"
  3992 ;; Parameters:    Size  Location     Type
  3993 ;;		None
  3994 ;; Auto vars:     Size  Location     Type
  3995 ;;		None
  3996 ;; Return value:  Size  Location     Type
  3997 ;;                  2    4[COMMON] unsigned short 
  3998 ;; Registers used:
  3999 ;;		wreg
  4000 ;; Tracked objects:
  4001 ;;		On entry : 0/0
  4002 ;;		On exit  : 0/0
  4003 ;;		Unchanged: 0/0
  4004 ;; Data sizes:     COMMON   BANK0   BANK1   BANK3   BANK2
  4005 ;;      Params:         2       0       0       0       0
  4006 ;;      Locals:         0       0       0       0       0
  4007 ;;      Temps:          0       0       0       0       0
  4008 ;;      Totals:         2       0       0       0       0
  4009 ;;Total ram usage:        2 bytes
  4010 ;; Hardware stack levels used: 1
  4011 ;; Hardware stack levels required when called: 1
  4012 ;; This function calls:
  4013 ;;		Nothing
  4014 ;; This function is called by:
  4015 ;;		_process_heart_rate
  4016 ;; This function uses a non-reentrant model
  4017 ;;
  4018                           
  4019     09D4                     _millis:	
  4020                           ;psect for function _millis
  4021                           
  4022     09D4                     l2836:	
  4023                           ;incstack = 0
  4024                           ; Regs used in _millis: [wreg]
  4025                           
  4026     09D4  1683               	bsf	3,5	;RP0=1, select bank1
  4027     09D5  1303               	bcf	3,6	;RP1=0, select bank1
  4028     09D6  082D               	movf	(_timer_ms+1)^(0+128),w
  4029     09D7  00F5               	movwf	?_millis+1
  4030     09D8  082C               	movf	_timer_ms^(0+128),w
  4031     09D9  00F4               	movwf	?_millis
  4032     09DA                     l274:
  4033     09DA  0008               	return
  4034     09DB                     __end_of_millis:
  4035                           
  4036                           	psect	text13
  4037     0A58                     __ptext13:	
  4038 ;; *************** function _UART_Init *****************
  4039 ;; Defined at:
  4040 ;;		line 36 in file "main.c"
  4041 ;; Parameters:    Size  Location     Type
  4042 ;;		None
  4043 ;; Auto vars:     Size  Location     Type
  4044 ;;		None
  4045 ;; Return value:  Size  Location     Type
  4046 ;;                  1    wreg      void 
  4047 ;; Registers used:
  4048 ;;		None
  4049 ;; Tracked objects:
  4050 ;;		On entry : 0/0
  4051 ;;		On exit  : 0/0
  4052 ;;		Unchanged: 0/0
  4053 ;; Data sizes:     COMMON   BANK0   BANK1   BANK3   BANK2
  4054 ;;      Params:         0       0       0       0       0
  4055 ;;      Locals:         0       0       0       0       0
  4056 ;;      Temps:          0       0       0       0       0
  4057 ;;      Totals:         0       0       0       0       0
  4058 ;;Total ram usage:        0 bytes
  4059 ;; Hardware stack levels used: 1
  4060 ;; Hardware stack levels required when called: 1
  4061 ;; This function calls:
  4062 ;;		Nothing
  4063 ;; This function is called by:
  4064 ;;		_main
  4065 ;; This function uses a non-reentrant model
  4066 ;;
  4067                           
  4068     0A58                     _UART_Init:	
  4069                           ;psect for function _UART_Init
  4070                           
  4071     0A58                     l2992:	
  4072                           ;incstack = 0
  4073                           ; Regs used in _UART_Init: []
  4074                           
  4075                           
  4076                           ;main.c: 38: }
  4077     0A58  300C               	movlw	12
  4078     0A59  1683               	bsf	3,5	;RP0=1, select bank1
  4079     0A5A  1303               	bcf	3,6	;RP1=0, select bank1
  4080     0A5B  0099               	movwf	25	;volatile
  4081                           
  4082                           ;main.c: 39: static void UART_TxInt(int16_t v){
  4083     0A5C  1118               	bcf	24,2	;volatile
  4084                           
  4085                           ;main.c: 40:     if(v<0){ UART_TxChar('-'); v = -v; }
  4086     0A5D  1218               	bcf	24,4	;volatile
  4087                           
  4088                           ;main.c: 41:     UART_TxUInt((uint16_t)v);
  4089     0A5E  1698               	bsf	24,5	;volatile
  4090                           
  4091                           ;main.c: 42: }
  4092     0A5F  1283               	bcf	3,5	;RP0=0, select bank0
  4093     0A60  1303               	bcf	3,6	;RP1=0, select bank0
  4094     0A61  1798               	bsf	24,7	;volatile
  4095                           
  4096                           ;main.c: 43: 
  4097     0A62  1618               	bsf	24,4	;volatile
  4098                           
  4099                           ;main.c: 44: 
  4100     0A63  1318               	bcf	24,6	;volatile
  4101                           
  4102                           ;main.c: 45: static __attribute__((inline)) void I2C_WaitIdle(void){
  4103     0A64  1683               	bsf	3,5	;RP0=1, select bank1
  4104     0A65  1303               	bcf	3,6	;RP1=0, select bank1
  4105     0A66  168C               	bsf	12,5	;volatile
  4106                           
  4107                           ;main.c: 46:     while ((SSPCON2 & 0x1F) || (SSPSTAT & 0x04));
  4108     0A67  170B               	bsf	11,6	;volatile
  4109                           
  4110                           ;main.c: 47: }
  4111     0A68  178B               	bsf	11,7	;volatile
  4112     0A69                     l101:
  4113     0A69  0008               	return
  4114     0A6A                     __end_of_UART_Init:
  4115                           
  4116                           	psect	text14
  4117     0E03                     __ptext14:	
  4118 ;; *************** function _MAX30102_Temp_dC10 *****************
  4119 ;; Defined at:
  4120 ;;		line 231 in file "main.c"
  4121 ;; Parameters:    Size  Location     Type
  4122 ;;		None
  4123 ;; Auto vars:     Size  Location     Type
  4124 ;;  frac            2   10[BANK0 ] short 
  4125 ;;  tfrac           1   13[BANK0 ] unsigned char 
  4126 ;;  tint            1   12[BANK0 ] char 
  4127 ;; Return value:  Size  Location     Type
  4128 ;;                  2    4[BANK0 ] short 
  4129 ;; Registers used:
  4130 ;;		wreg, status,2, status,0, pclath, cstack
  4131 ;; Tracked objects:
  4132 ;;		On entry : 0/0
  4133 ;;		On exit  : 0/0
  4134 ;;		Unchanged: 0/0
  4135 ;; Data sizes:     COMMON   BANK0   BANK1   BANK3   BANK2
  4136 ;;      Params:         0       2       0       0       0
  4137 ;;      Locals:         0       4       0       0       0
  4138 ;;      Temps:          0       4       0       0       0
  4139 ;;      Totals:         0      10       0       0       0
  4140 ;;Total ram usage:       10 bytes
  4141 ;; Hardware stack levels used: 1
  4142 ;; Hardware stack levels required when called: 4
  4143 ;; This function calls:
  4144 ;;		_MAX_Read
  4145 ;;		_MAX_Write
  4146 ;;		___wmul
  4147 ;; This function is called by:
  4148 ;;		_main
  4149 ;; This function uses a non-reentrant model
  4150 ;;
  4151                           
  4152     0E03                     _MAX30102_Temp_dC10:	
  4153                           ;psect for function _MAX30102_Temp_dC10
  4154                           
  4155     0E03                     l3142:	
  4156                           ;incstack = 0
  4157                           ; Regs used in _MAX30102_Temp_dC10: [wreg+status,2+status,0+pclath+cstack]
  4158                           
  4159                           
  4160                           ;main.c: 232:     MAX_Write(0x21, 0x01);
  4161     0E03  01F5               	clrf	MAX_Write@val
  4162     0E04  0AF5               	incf	MAX_Write@val,f
  4163     0E05  3021               	movlw	33
  4164     0E06  120A  158A  229F  120A  158A  	fcall	_MAX_Write
  4165     0E0B                     l3144:
  4166                           
  4167                           ;main.c: 233:     _delay((unsigned long)((50)*(8000000UL/4000.0)));
  4168     0E0B  3082               	movlw	130
  4169     0E0C  1283               	bcf	3,5	;RP0=0, select bank0
  4170     0E0D  1303               	bcf	3,6	;RP1=0, select bank0
  4171     0E0E  00A7               	movwf	??_MAX30102_Temp_dC10+1
  4172     0E0F  30DD               	movlw	221
  4173     0E10  00A6               	movwf	??_MAX30102_Temp_dC10
  4174     0E11                     u3867:
  4175     0E11  0BA6               	decfsz	??_MAX30102_Temp_dC10,f
  4176     0E12  2E11               	goto	u3867
  4177     0E13  0BA7               	decfsz	??_MAX30102_Temp_dC10+1,f
  4178     0E14  2E11               	goto	u3867
  4179     0E15                     l3146:
  4180                           
  4181                           ;main.c: 234:     int8_t tint = (int8_t)MAX_Read(0x1F);
  4182     0E15  301F               	movlw	31
  4183     0E16  120A  158A  2419  120A  158A  	fcall	_MAX_Read
  4184     0E1B  1283               	bcf	3,5	;RP0=0, select bank0
  4185     0E1C  1303               	bcf	3,6	;RP1=0, select bank0
  4186     0E1D  00AC               	movwf	MAX30102_Temp_dC10@tint
  4187     0E1E                     l3148:
  4188                           
  4189                           ;main.c: 235:     uint8_t tfrac = MAX_Read(0x20) & 0x0F;
  4190     0E1E  3020               	movlw	32
  4191     0E1F  120A  158A  2419  120A  158A  	fcall	_MAX_Read
  4192     0E24  1283               	bcf	3,5	;RP0=0, select bank0
  4193     0E25  1303               	bcf	3,6	;RP1=0, select bank0
  4194     0E26  00AD               	movwf	MAX30102_Temp_dC10@tfrac
  4195     0E27                     l3150:
  4196     0E27  300F               	movlw	15
  4197     0E28  05AD               	andwf	MAX30102_Temp_dC10@tfrac,f
  4198     0E29                     l3152:
  4199                           
  4200                           ;main.c: 236:     int16_t frac = (int16_t)((tfrac * 10U + 8U) >> 4);
  4201     0E29  082D               	movf	MAX30102_Temp_dC10@tfrac,w
  4202     0E2A  00A6               	movwf	??_MAX30102_Temp_dC10
  4203     0E2B  01A7               	clrf	??_MAX30102_Temp_dC10+1
  4204     0E2C  0826               	movf	??_MAX30102_Temp_dC10,w
  4205     0E2D  00A0               	movwf	___wmul@multiplier
  4206     0E2E  0827               	movf	??_MAX30102_Temp_dC10+1,w
  4207     0E2F  00A1               	movwf	___wmul@multiplier+1
  4208     0E30  300A               	movlw	10
  4209     0E31  00A2               	movwf	___wmul@multiplicand
  4210     0E32  3000               	movlw	0
  4211     0E33  00A3               	movwf	___wmul@multiplicand+1
  4212     0E34  120A  158A  2349  120A  158A  	fcall	___wmul
  4213     0E39  1283               	bcf	3,5	;RP0=0, select bank0
  4214     0E3A  1303               	bcf	3,6	;RP1=0, select bank0
  4215     0E3B  0820               	movf	?___wmul,w
  4216     0E3C  3E08               	addlw	8
  4217     0E3D  00A8               	movwf	??_MAX30102_Temp_dC10+2
  4218     0E3E  0821               	movf	?___wmul+1,w
  4219     0E3F  1803               	skipnc
  4220     0E40  3E01               	addlw	1
  4221     0E41  3E00               	addlw	0
  4222     0E42  00A9               	movwf	??_MAX30102_Temp_dC10+3
  4223     0E43  0E28               	swapf	??_MAX30102_Temp_dC10+2,w
  4224     0E44  390F               	andlw	15
  4225     0E45  00AA               	movwf	MAX30102_Temp_dC10@frac
  4226     0E46  0E29               	swapf	??_MAX30102_Temp_dC10+3,w
  4227     0E47  39F0               	andlw	240
  4228     0E48  04AA               	iorwf	MAX30102_Temp_dC10@frac,f
  4229     0E49  0E29               	swapf	??_MAX30102_Temp_dC10+3,w
  4230     0E4A  390F               	andlw	15
  4231     0E4B  00AB               	movwf	MAX30102_Temp_dC10@frac+1
  4232     0E4C                     l3154:
  4233                           
  4234                           ;main.c: 237:     return (int16_t)tint * 10 + frac;
  4235     0E4C  082C               	movf	MAX30102_Temp_dC10@tint,w
  4236     0E4D  00A0               	movwf	___wmul@multiplier
  4237     0E4E  01A1               	clrf	___wmul@multiplier+1
  4238     0E4F  1BA0               	btfsc	___wmul@multiplier,7
  4239     0E50  03A1               	decf	___wmul@multiplier+1,f
  4240     0E51  300A               	movlw	10
  4241     0E52  00A2               	movwf	___wmul@multiplicand
  4242     0E53  3000               	movlw	0
  4243     0E54  00A3               	movwf	___wmul@multiplicand+1
  4244     0E55  120A  158A  2349  120A  158A  	fcall	___wmul
  4245     0E5A  1283               	bcf	3,5	;RP0=0, select bank0
  4246     0E5B  1303               	bcf	3,6	;RP1=0, select bank0
  4247     0E5C  082A               	movf	MAX30102_Temp_dC10@frac,w
  4248     0E5D  0720               	addwf	?___wmul,w
  4249     0E5E  00A4               	movwf	?_MAX30102_Temp_dC10
  4250     0E5F  082B               	movf	MAX30102_Temp_dC10@frac+1,w
  4251     0E60  1803               	skipnc
  4252     0E61  0A2B               	incf	MAX30102_Temp_dC10@frac+1,w
  4253     0E62  0721               	addwf	?___wmul+1,w
  4254     0E63  00A5               	movwf	?_MAX30102_Temp_dC10+1
  4255     0E64                     l255:
  4256     0E64  0008               	return
  4257     0E65                     __end_of_MAX30102_Temp_dC10:
  4258                           
  4259                           	psect	text15
  4260     0B49                     __ptext15:	
  4261 ;; *************** function ___wmul *****************
  4262 ;; Defined at:
  4263 ;;		line 15 in file "C:\Program Files\Microchip\xc8\v3.00\pic\sources\c99\common\Umul16.c"
  4264 ;; Parameters:    Size  Location     Type
  4265 ;;  multiplier      2    0[BANK0 ] unsigned int 
  4266 ;;  multiplicand    2    2[BANK0 ] unsigned int 
  4267 ;; Auto vars:     Size  Location     Type
  4268 ;;  product         2    4[COMMON] unsigned int 
  4269 ;; Return value:  Size  Location     Type
  4270 ;;                  2    0[BANK0 ] unsigned int 
  4271 ;; Registers used:
  4272 ;;		wreg, status,2, status,0
  4273 ;; Tracked objects:
  4274 ;;		On entry : 0/0
  4275 ;;		On exit  : 0/0
  4276 ;;		Unchanged: 0/0
  4277 ;; Data sizes:     COMMON   BANK0   BANK1   BANK3   BANK2
  4278 ;;      Params:         0       4       0       0       0
  4279 ;;      Locals:         2       0       0       0       0
  4280 ;;      Temps:          0       0       0       0       0
  4281 ;;      Totals:         2       4       0       0       0
  4282 ;;Total ram usage:        6 bytes
  4283 ;; Hardware stack levels used: 1
  4284 ;; Hardware stack levels required when called: 1
  4285 ;; This function calls:
  4286 ;;		Nothing
  4287 ;; This function is called by:
  4288 ;;		_MAX30102_Temp_dC10
  4289 ;; This function uses a non-reentrant model
  4290 ;;
  4291                           
  4292     0B49                     ___wmul:	
  4293                           ;psect for function ___wmul
  4294                           
  4295     0B49                     l2896:	
  4296                           ;incstack = 0
  4297                           ; Regs used in ___wmul: [wreg+status,2+status,0]
  4298                           
  4299     0B49  01F4               	clrf	___wmul@product
  4300     0B4A  01F5               	clrf	___wmul@product+1
  4301     0B4B                     l2898:
  4302     0B4B  1283               	bcf	3,5	;RP0=0, select bank0
  4303     0B4C  1303               	bcf	3,6	;RP1=0, select bank0
  4304     0B4D  1C20               	btfss	___wmul@multiplier,0
  4305     0B4E  2B50               	goto	u2951
  4306     0B4F  2B51               	goto	u2950
  4307     0B50                     u2951:
  4308     0B50  2B57               	goto	l420
  4309     0B51                     u2950:
  4310     0B51                     l2900:
  4311     0B51  0822               	movf	___wmul@multiplicand,w
  4312     0B52  07F4               	addwf	___wmul@product,f
  4313     0B53  1803               	skipnc
  4314     0B54  0AF5               	incf	___wmul@product+1,f
  4315     0B55  0823               	movf	___wmul@multiplicand+1,w
  4316     0B56  07F5               	addwf	___wmul@product+1,f
  4317     0B57                     l420:
  4318     0B57  3001               	movlw	1
  4319     0B58                     u2965:
  4320     0B58  1003               	clrc
  4321     0B59  0DA2               	rlf	___wmul@multiplicand,f
  4322     0B5A  0DA3               	rlf	___wmul@multiplicand+1,f
  4323     0B5B  3EFF               	addlw	-1
  4324     0B5C  1D03               	skipz
  4325     0B5D  2B58               	goto	u2965
  4326     0B5E                     l2902:
  4327     0B5E  3001               	movlw	1
  4328     0B5F                     u2975:
  4329     0B5F  1003               	clrc
  4330     0B60  0CA1               	rrf	___wmul@multiplier+1,f
  4331     0B61  0CA0               	rrf	___wmul@multiplier,f
  4332     0B62  3EFF               	addlw	-1
  4333     0B63  1D03               	skipz
  4334     0B64  2B5F               	goto	u2975
  4335     0B65                     l2904:
  4336     0B65  0820               	movf	___wmul@multiplier,w
  4337     0B66  0421               	iorwf	___wmul@multiplier+1,w
  4338     0B67  1D03               	btfss	3,2
  4339     0B68  2B6A               	goto	u2981
  4340     0B69  2B6B               	goto	u2980
  4341     0B6A                     u2981:
  4342     0B6A  2B4B               	goto	l2898
  4343     0B6B                     u2980:
  4344     0B6B                     l2906:
  4345     0B6B  0875               	movf	___wmul@product+1,w
  4346     0B6C  00A1               	movwf	?___wmul+1
  4347     0B6D  0874               	movf	___wmul@product,w
  4348     0B6E  00A0               	movwf	?___wmul
  4349     0B6F                     l422:
  4350     0B6F  0008               	return
  4351     0B70                     __end_of___wmul:
  4352                           
  4353                           	psect	text16
  4354     0C19                     __ptext16:	
  4355 ;; *************** function _MAX_Read *****************
  4356 ;; Defined at:
  4357 ;;		line 196 in file "main.c"
  4358 ;; Parameters:    Size  Location     Type
  4359 ;;  reg             1    wreg     unsigned char 
  4360 ;; Auto vars:     Size  Location     Type
  4361 ;;  reg             1    0[BANK0 ] unsigned char 
  4362 ;;  v               1    1[BANK0 ] unsigned char 
  4363 ;; Return value:  Size  Location     Type
  4364 ;;                  1    wreg      unsigned char 
  4365 ;; Registers used:
  4366 ;;		wreg, status,2, status,0, pclath, cstack
  4367 ;; Tracked objects:
  4368 ;;		On entry : 0/0
  4369 ;;		On exit  : 0/0
  4370 ;;		Unchanged: 0/0
  4371 ;; Data sizes:     COMMON   BANK0   BANK1   BANK3   BANK2
  4372 ;;      Params:         0       0       0       0       0
  4373 ;;      Locals:         0       2       0       0       0
  4374 ;;      Temps:          0       0       0       0       0
  4375 ;;      Totals:         0       2       0       0       0
  4376 ;;Total ram usage:        2 bytes
  4377 ;; Hardware stack levels used: 1
  4378 ;; Hardware stack levels required when called: 3
  4379 ;; This function calls:
  4380 ;;		_I2C_Read
  4381 ;;		_I2C_Restart
  4382 ;;		_I2C_Start
  4383 ;;		_I2C_Stop
  4384 ;;		_I2C_Write
  4385 ;; This function is called by:
  4386 ;;		_MAX30102_Temp_dC10
  4387 ;; This function uses a non-reentrant model
  4388 ;;
  4389                           
  4390     0C19                     _MAX_Read:	
  4391                           ;psect for function _MAX_Read
  4392                           
  4393                           
  4394                           ;incstack = 0
  4395                           ; Regs used in _MAX_Read: [wreg+status,2+status,0+pclath+cstack]
  4396                           ;MAX_Read@reg stored from wreg
  4397     0C19  1283               	bcf	3,5	;RP0=0, select bank0
  4398     0C1A  1303               	bcf	3,6	;RP1=0, select bank0
  4399     0C1B  00A0               	movwf	MAX_Read@reg
  4400     0C1C                     l2830:
  4401                           
  4402                           ;main.c: 197:     uint8_t v;;main.c: 198:     I2C_Start();
  4403     0C1C  120A  158A  21F0  120A  158A  	fcall	_I2C_Start
  4404                           
  4405                           ;main.c: 199:     I2C_Write((0x57<<1)|0);
  4406     0C21  30AE               	movlw	174
  4407     0C22  120A  158A  2226  120A  158A  	fcall	_I2C_Write
  4408                           
  4409                           ;main.c: 200:     I2C_Write(reg);
  4410     0C27  1283               	bcf	3,5	;RP0=0, select bank0
  4411     0C28  1303               	bcf	3,6	;RP1=0, select bank0
  4412     0C29  0820               	movf	MAX_Read@reg,w
  4413     0C2A  120A  158A  2226  120A  158A  	fcall	_I2C_Write
  4414                           
  4415                           ;main.c: 201:     I2C_Restart();
  4416     0C2F  120A  158A  220A  120A  158A  	fcall	_I2C_Restart
  4417                           
  4418                           ;main.c: 202:     I2C_Write((0x57<<1)|1);
  4419     0C34  30AF               	movlw	175
  4420     0C35  120A  158A  2226  120A  158A  	fcall	_I2C_Write
  4421                           
  4422                           ;main.c: 203:     v = I2C_Read(0);
  4423     0C3A  3000               	movlw	0
  4424     0C3B  120A  158A  2398  120A  158A  	fcall	_I2C_Read
  4425     0C40  1283               	bcf	3,5	;RP0=0, select bank0
  4426     0C41  1303               	bcf	3,6	;RP1=0, select bank0
  4427     0C42  00A1               	movwf	MAX_Read@v
  4428                           
  4429                           ;main.c: 204:     I2C_Stop();
  4430     0C43  120A  158A  21FD  120A  158A  	fcall	_I2C_Stop
  4431     0C48                     l2832:
  4432                           
  4433                           ;main.c: 205:     return v;
  4434     0C48  1283               	bcf	3,5	;RP0=0, select bank0
  4435     0C49  1303               	bcf	3,6	;RP1=0, select bank0
  4436     0C4A  0821               	movf	MAX_Read@v,w
  4437     0C4B                     l244:
  4438     0C4B  0008               	return
  4439     0C4C                     __end_of_MAX_Read:
  4440                           
  4441                           	psect	text17
  4442     0455                     __ptext17:	
  4443 ;; *************** function _MAX30102_ReadFIFO *****************
  4444 ;; Defined at:
  4445 ;;		line 219 in file "main.c"
  4446 ;; Parameters:    Size  Location     Type
  4447 ;;  red             1    0[BANK0 ] PTR unsigned long 
  4448 ;;		 -> main@red(4), 
  4449 ;;  ir              1    1[BANK0 ] PTR unsigned long 
  4450 ;;		 -> main@ir(4), 
  4451 ;; Auto vars:     Size  Location     Type
  4452 ;;  i               1   24[BANK0 ] unsigned char 
  4453 ;;  d               6   18[BANK0 ] unsigned char [6]
  4454 ;; Return value:  Size  Location     Type
  4455 ;;                  1    wreg      void 
  4456 ;; Registers used:
  4457 ;;		wreg, fsr0l, fsr0h, status,2, status,0, pclath, cstack
  4458 ;; Tracked objects:
  4459 ;;		On entry : 0/0
  4460 ;;		On exit  : 0/0
  4461 ;;		Unchanged: 0/0
  4462 ;; Data sizes:     COMMON   BANK0   BANK1   BANK3   BANK2
  4463 ;;      Params:         0       2       0       0       0
  4464 ;;      Locals:         0       7       0       0       0
  4465 ;;      Temps:          0      16       0       0       0
  4466 ;;      Totals:         0      25       0       0       0
  4467 ;;Total ram usage:       25 bytes
  4468 ;; Hardware stack levels used: 1
  4469 ;; Hardware stack levels required when called: 3
  4470 ;; This function calls:
  4471 ;;		_I2C_Read
  4472 ;;		_I2C_Restart
  4473 ;;		_I2C_Start
  4474 ;;		_I2C_Stop
  4475 ;;		_I2C_Write
  4476 ;; This function is called by:
  4477 ;;		_main
  4478 ;; This function uses a non-reentrant model
  4479 ;;
  4480                           
  4481     0455                     _MAX30102_ReadFIFO:	
  4482                           ;psect for function _MAX30102_ReadFIFO
  4483                           
  4484     0455                     l3122:	
  4485                           ;incstack = 0
  4486                           ; Regs used in _MAX30102_ReadFIFO: [wreg-fsr0h+status,2+status,0+pclath+cstack]
  4487                           
  4488                           
  4489                           ;main.c: 220:     uint8_t d[6];;main.c: 221:     I2C_Start();
  4490     0455  120A  158A  21F0  120A  118A  	fcall	_I2C_Start
  4491                           
  4492                           ;main.c: 222:     I2C_Write((0x57<<1)|0);
  4493     045A  30AE               	movlw	174
  4494     045B  120A  158A  2226  120A  118A  	fcall	_I2C_Write
  4495                           
  4496                           ;main.c: 223:     I2C_Write(0x07);
  4497     0460  3007               	movlw	7
  4498     0461  120A  158A  2226  120A  118A  	fcall	_I2C_Write
  4499                           
  4500                           ;main.c: 224:     I2C_Restart();
  4501     0466  120A  158A  220A  120A  118A  	fcall	_I2C_Restart
  4502                           
  4503                           ;main.c: 225:     I2C_Write((0x57<<1)|1);
  4504     046B  30AF               	movlw	175
  4505     046C  120A  158A  2226  120A  118A  	fcall	_I2C_Write
  4506     0471                     l3124:
  4507                           
  4508                           ;main.c: 226:     for(uint8_t i=0;i<6;i++) d[i] = I2C_Read(i<5);
  4509     0471  1283               	bcf	3,5	;RP0=0, select bank0
  4510     0472  1303               	bcf	3,6	;RP1=0, select bank0
  4511     0473  01B8               	clrf	MAX30102_ReadFIFO@i
  4512     0474                     l3130:
  4513     0474  0838               	movf	MAX30102_ReadFIFO@i,w
  4514     0475  3E32               	addlw	(low (MAX30102_ReadFIFO@d| 0))& (0+255)
  4515     0476  0084               	movwf	4
  4516     0477  3005               	movlw	5
  4517     0478  0238               	subwf	MAX30102_ReadFIFO@i,w
  4518     0479  1C03               	skipc
  4519     047A  2C7C               	goto	u3381
  4520     047B  2C7E               	goto	u3380
  4521     047C                     u3381:
  4522     047C  3001               	movlw	1
  4523     047D  2C7F               	goto	u3390
  4524     047E                     u3380:
  4525     047E  3000               	movlw	0
  4526     047F                     u3390:
  4527     047F  120A  158A  2398  120A  118A  	fcall	_I2C_Read
  4528     0484  1383               	bcf	3,7	;select IRP bank0
  4529     0485  0080               	movwf	0
  4530     0486                     l3132:
  4531     0486  3001               	movlw	1
  4532     0487  1283               	bcf	3,5	;RP0=0, select bank0
  4533     0488  1303               	bcf	3,6	;RP1=0, select bank0
  4534     0489  07B8               	addwf	MAX30102_ReadFIFO@i,f
  4535     048A                     l3134:
  4536     048A  3006               	movlw	6
  4537     048B  0238               	subwf	MAX30102_ReadFIFO@i,w
  4538     048C  1C03               	skipc
  4539     048D  2C8F               	goto	u3401
  4540     048E  2C90               	goto	u3400
  4541     048F                     u3401:
  4542     048F  2C74               	goto	l3130
  4543     0490                     u3400:
  4544     0490                     l3136:
  4545                           
  4546                           ;main.c: 227:     I2C_Stop();
  4547     0490  120A  158A  21FD  120A  118A  	fcall	_I2C_Stop
  4548     0495                     l3138:
  4549                           
  4550                           ;main.c: 228:     *red = ((((uint32_t)d[0]<<16) | ((uint32_t)d[1]<<8) | d[2]) & 0x3FFFFU
      +                          L);
  4551     0495  30FF               	movlw	255
  4552     0496  1283               	bcf	3,5	;RP0=0, select bank0
  4553     0497  1303               	bcf	3,6	;RP1=0, select bank0
  4554     0498  00A2               	movwf	??_MAX30102_ReadFIFO
  4555     0499  30FF               	movlw	255
  4556     049A  00A3               	movwf	??_MAX30102_ReadFIFO+1
  4557     049B  3003               	movlw	3
  4558     049C  00A4               	movwf	??_MAX30102_ReadFIFO+2
  4559     049D  3000               	movlw	0
  4560     049E  00A5               	movwf	??_MAX30102_ReadFIFO+3
  4561     049F  0834               	movf	MAX30102_ReadFIFO@d+2,w
  4562     04A0  00A6               	movwf	??_MAX30102_ReadFIFO+4
  4563     04A1  01A7               	clrf	??_MAX30102_ReadFIFO+5
  4564     04A2  01A8               	clrf	??_MAX30102_ReadFIFO+6
  4565     04A3  01A9               	clrf	??_MAX30102_ReadFIFO+7
  4566     04A4  0833               	movf	MAX30102_ReadFIFO@d+1,w
  4567     04A5  00AA               	movwf	??_MAX30102_ReadFIFO+8
  4568     04A6  01AB               	clrf	??_MAX30102_ReadFIFO+9
  4569     04A7  01AC               	clrf	??_MAX30102_ReadFIFO+10
  4570     04A8  01AD               	clrf	??_MAX30102_ReadFIFO+11
  4571     04A9  3008               	movlw	8
  4572     04AA                     u3415:
  4573     04AA  1003               	clrc
  4574     04AB  0DAA               	rlf	??_MAX30102_ReadFIFO+8,f
  4575     04AC  0DAB               	rlf	??_MAX30102_ReadFIFO+9,f
  4576     04AD  0DAC               	rlf	??_MAX30102_ReadFIFO+10,f
  4577     04AE  0DAD               	rlf	??_MAX30102_ReadFIFO+11,f
  4578     04AF                     u3410:
  4579     04AF  3EFF               	addlw	-1
  4580     04B0  1D03               	skipz
  4581     04B1  2CAA               	goto	u3415
  4582     04B2  0832               	movf	MAX30102_ReadFIFO@d,w
  4583     04B3  00AE               	movwf	??_MAX30102_ReadFIFO+12
  4584     04B4  01AF               	clrf	??_MAX30102_ReadFIFO+13
  4585     04B5  01B0               	clrf	??_MAX30102_ReadFIFO+14
  4586     04B6  01B1               	clrf	??_MAX30102_ReadFIFO+15
  4587     04B7  3010               	movlw	16
  4588     04B8                     u3425:
  4589     04B8  1003               	clrc
  4590     04B9  0DAE               	rlf	??_MAX30102_ReadFIFO+12,f
  4591     04BA  0DAF               	rlf	??_MAX30102_ReadFIFO+13,f
  4592     04BB  0DB0               	rlf	??_MAX30102_ReadFIFO+14,f
  4593     04BC  0DB1               	rlf	??_MAX30102_ReadFIFO+15,f
  4594     04BD                     u3420:
  4595     04BD  3EFF               	addlw	-1
  4596     04BE  1D03               	skipz
  4597     04BF  2CB8               	goto	u3425
  4598     04C0  082E               	movf	??_MAX30102_ReadFIFO+12,w
  4599     04C1  04AA               	iorwf	??_MAX30102_ReadFIFO+8,f
  4600     04C2  082F               	movf	??_MAX30102_ReadFIFO+13,w
  4601     04C3  04AB               	iorwf	??_MAX30102_ReadFIFO+9,f
  4602     04C4  0830               	movf	??_MAX30102_ReadFIFO+14,w
  4603     04C5  04AC               	iorwf	??_MAX30102_ReadFIFO+10,f
  4604     04C6  0831               	movf	??_MAX30102_ReadFIFO+15,w
  4605     04C7  04AD               	iorwf	??_MAX30102_ReadFIFO+11,f
  4606     04C8  082A               	movf	??_MAX30102_ReadFIFO+8,w
  4607     04C9  04A6               	iorwf	??_MAX30102_ReadFIFO+4,f
  4608     04CA  082B               	movf	??_MAX30102_ReadFIFO+9,w
  4609     04CB  04A7               	iorwf	??_MAX30102_ReadFIFO+5,f
  4610     04CC  082C               	movf	??_MAX30102_ReadFIFO+10,w
  4611     04CD  04A8               	iorwf	??_MAX30102_ReadFIFO+6,f
  4612     04CE  082D               	movf	??_MAX30102_ReadFIFO+11,w
  4613     04CF  04A9               	iorwf	??_MAX30102_ReadFIFO+7,f
  4614     04D0  0826               	movf	??_MAX30102_ReadFIFO+4,w
  4615     04D1  05A2               	andwf	??_MAX30102_ReadFIFO,f
  4616     04D2  0827               	movf	??_MAX30102_ReadFIFO+5,w
  4617     04D3  05A3               	andwf	??_MAX30102_ReadFIFO+1,f
  4618     04D4  0828               	movf	??_MAX30102_ReadFIFO+6,w
  4619     04D5  05A4               	andwf	??_MAX30102_ReadFIFO+2,f
  4620     04D6  0829               	movf	??_MAX30102_ReadFIFO+7,w
  4621     04D7  05A5               	andwf	??_MAX30102_ReadFIFO+3,f
  4622     04D8  0820               	movf	MAX30102_ReadFIFO@red,w
  4623     04D9  0084               	movwf	4
  4624     04DA  0822               	movf	??_MAX30102_ReadFIFO,w
  4625     04DB  1783               	bsf	3,7	;select IRP bank2
  4626     04DC  0080               	movwf	0
  4627     04DD  0A84               	incf	4,f
  4628     04DE  0823               	movf	??_MAX30102_ReadFIFO+1,w
  4629     04DF  0080               	movwf	0
  4630     04E0  0A84               	incf	4,f
  4631     04E1  0824               	movf	??_MAX30102_ReadFIFO+2,w
  4632     04E2  0080               	movwf	0
  4633     04E3  0A84               	incf	4,f
  4634     04E4  0825               	movf	??_MAX30102_ReadFIFO+3,w
  4635     04E5  0080               	movwf	0
  4636     04E6                     l3140:
  4637                           
  4638                           ;main.c: 229:     *ir = ((((uint32_t)d[3]<<16) | ((uint32_t)d[4]<<8) | d[5]) & 0x3FFFFUL
      +                          );
  4639     04E6  30FF               	movlw	255
  4640     04E7  00A2               	movwf	??_MAX30102_ReadFIFO
  4641     04E8  30FF               	movlw	255
  4642     04E9  00A3               	movwf	??_MAX30102_ReadFIFO+1
  4643     04EA  3003               	movlw	3
  4644     04EB  00A4               	movwf	??_MAX30102_ReadFIFO+2
  4645     04EC  3000               	movlw	0
  4646     04ED  00A5               	movwf	??_MAX30102_ReadFIFO+3
  4647     04EE  0837               	movf	MAX30102_ReadFIFO@d+5,w
  4648     04EF  00A6               	movwf	??_MAX30102_ReadFIFO+4
  4649     04F0  01A7               	clrf	??_MAX30102_ReadFIFO+5
  4650     04F1  01A8               	clrf	??_MAX30102_ReadFIFO+6
  4651     04F2  01A9               	clrf	??_MAX30102_ReadFIFO+7
  4652     04F3  0836               	movf	MAX30102_ReadFIFO@d+4,w
  4653     04F4  00AA               	movwf	??_MAX30102_ReadFIFO+8
  4654     04F5  01AB               	clrf	??_MAX30102_ReadFIFO+9
  4655     04F6  01AC               	clrf	??_MAX30102_ReadFIFO+10
  4656     04F7  01AD               	clrf	??_MAX30102_ReadFIFO+11
  4657     04F8  3008               	movlw	8
  4658     04F9                     u3435:
  4659     04F9  1003               	clrc
  4660     04FA  0DAA               	rlf	??_MAX30102_ReadFIFO+8,f
  4661     04FB  0DAB               	rlf	??_MAX30102_ReadFIFO+9,f
  4662     04FC  0DAC               	rlf	??_MAX30102_ReadFIFO+10,f
  4663     04FD  0DAD               	rlf	??_MAX30102_ReadFIFO+11,f
  4664     04FE                     u3430:
  4665     04FE  3EFF               	addlw	-1
  4666     04FF  1D03               	skipz
  4667     0500  2CF9               	goto	u3435
  4668     0501  0835               	movf	MAX30102_ReadFIFO@d+3,w
  4669     0502  00AE               	movwf	??_MAX30102_ReadFIFO+12
  4670     0503  01AF               	clrf	??_MAX30102_ReadFIFO+13
  4671     0504  01B0               	clrf	??_MAX30102_ReadFIFO+14
  4672     0505  01B1               	clrf	??_MAX30102_ReadFIFO+15
  4673     0506  3010               	movlw	16
  4674     0507                     u3445:
  4675     0507  1003               	clrc
  4676     0508  0DAE               	rlf	??_MAX30102_ReadFIFO+12,f
  4677     0509  0DAF               	rlf	??_MAX30102_ReadFIFO+13,f
  4678     050A  0DB0               	rlf	??_MAX30102_ReadFIFO+14,f
  4679     050B  0DB1               	rlf	??_MAX30102_ReadFIFO+15,f
  4680     050C                     u3440:
  4681     050C  3EFF               	addlw	-1
  4682     050D  1D03               	skipz
  4683     050E  2D07               	goto	u3445
  4684     050F  082E               	movf	??_MAX30102_ReadFIFO+12,w
  4685     0510  04AA               	iorwf	??_MAX30102_ReadFIFO+8,f
  4686     0511  082F               	movf	??_MAX30102_ReadFIFO+13,w
  4687     0512  04AB               	iorwf	??_MAX30102_ReadFIFO+9,f
  4688     0513  0830               	movf	??_MAX30102_ReadFIFO+14,w
  4689     0514  04AC               	iorwf	??_MAX30102_ReadFIFO+10,f
  4690     0515  0831               	movf	??_MAX30102_ReadFIFO+15,w
  4691     0516  04AD               	iorwf	??_MAX30102_ReadFIFO+11,f
  4692     0517  082A               	movf	??_MAX30102_ReadFIFO+8,w
  4693     0518  04A6               	iorwf	??_MAX30102_ReadFIFO+4,f
  4694     0519  082B               	movf	??_MAX30102_ReadFIFO+9,w
  4695     051A  04A7               	iorwf	??_MAX30102_ReadFIFO+5,f
  4696     051B  082C               	movf	??_MAX30102_ReadFIFO+10,w
  4697     051C  04A8               	iorwf	??_MAX30102_ReadFIFO+6,f
  4698     051D  082D               	movf	??_MAX30102_ReadFIFO+11,w
  4699     051E  04A9               	iorwf	??_MAX30102_ReadFIFO+7,f
  4700     051F  0826               	movf	??_MAX30102_ReadFIFO+4,w
  4701     0520  05A2               	andwf	??_MAX30102_ReadFIFO,f
  4702     0521  0827               	movf	??_MAX30102_ReadFIFO+5,w
  4703     0522  05A3               	andwf	??_MAX30102_ReadFIFO+1,f
  4704     0523  0828               	movf	??_MAX30102_ReadFIFO+6,w
  4705     0524  05A4               	andwf	??_MAX30102_ReadFIFO+2,f
  4706     0525  0829               	movf	??_MAX30102_ReadFIFO+7,w
  4707     0526  05A5               	andwf	??_MAX30102_ReadFIFO+3,f
  4708     0527  0821               	movf	MAX30102_ReadFIFO@ir,w
  4709     0528  0084               	movwf	4
  4710     0529  0822               	movf	??_MAX30102_ReadFIFO,w
  4711     052A  0080               	movwf	0
  4712     052B  0A84               	incf	4,f
  4713     052C  0823               	movf	??_MAX30102_ReadFIFO+1,w
  4714     052D  0080               	movwf	0
  4715     052E  0A84               	incf	4,f
  4716     052F  0824               	movf	??_MAX30102_ReadFIFO+2,w
  4717     0530  0080               	movwf	0
  4718     0531  0A84               	incf	4,f
  4719     0532  0825               	movf	??_MAX30102_ReadFIFO+3,w
  4720     0533  0080               	movwf	0
  4721     0534                     l252:
  4722     0534  0008               	return
  4723     0535                     __end_of_MAX30102_ReadFIFO:
  4724                           
  4725                           	psect	text18
  4726     0A0A                     __ptext18:	
  4727 ;; *************** function _I2C_Restart *****************
  4728 ;; Defined at:
  4729 ;;		line 74 in file "main.c"
  4730 ;; Parameters:    Size  Location     Type
  4731 ;;		None
  4732 ;; Auto vars:     Size  Location     Type
  4733 ;;		None
  4734 ;; Return value:  Size  Location     Type
  4735 ;;                  1    wreg      void 
  4736 ;; Registers used:
  4737 ;;		wreg, status,2, status,0, pclath, cstack
  4738 ;; Tracked objects:
  4739 ;;		On entry : 0/0
  4740 ;;		On exit  : 0/0
  4741 ;;		Unchanged: 0/0
  4742 ;; Data sizes:     COMMON   BANK0   BANK1   BANK3   BANK2
  4743 ;;      Params:         0       0       0       0       0
  4744 ;;      Locals:         0       0       0       0       0
  4745 ;;      Temps:          0       0       0       0       0
  4746 ;;      Totals:         0       0       0       0       0
  4747 ;;Total ram usage:        0 bytes
  4748 ;; Hardware stack levels used: 1
  4749 ;; Hardware stack levels required when called: 2
  4750 ;; This function calls:
  4751 ;;		_I2C_WaitIdle
  4752 ;; This function is called by:
  4753 ;;		_MAX_Read
  4754 ;;		_MAX30102_ReadFIFO
  4755 ;; This function uses a non-reentrant model
  4756 ;;
  4757                           
  4758     0A0A                     _I2C_Restart:	
  4759                           ;psect for function _I2C_Restart
  4760                           
  4761     0A0A                     l2770:	
  4762                           ;incstack = 0
  4763                           ; Regs used in _I2C_Restart: [wreg+status,2+status,0+pclath+cstack]
  4764                           
  4765     0A0A  120A  158A  21E3  120A  158A  	fcall	_I2C_WaitIdle
  4766     0A0F                     l2772:
  4767     0A0F  1683               	bsf	3,5	;RP0=1, select bank1
  4768     0A10  1303               	bcf	3,6	;RP1=0, select bank1
  4769     0A11  1491               	bsf	17,1	;volatile
  4770     0A12                     l147:
  4771     0A12  1891               	btfsc	17,1	;volatile
  4772     0A13  2A15               	goto	u2841
  4773     0A14  2A16               	goto	u2840
  4774     0A15                     u2841:
  4775     0A15  2A12               	goto	l147
  4776     0A16                     u2840:
  4777     0A16                     l150:
  4778     0A16  0008               	return
  4779     0A17                     __end_of_I2C_Restart:
  4780                           
  4781                           	psect	text19
  4782     0B98                     __ptext19:	
  4783 ;; *************** function _I2C_Read *****************
  4784 ;; Defined at:
  4785 ;;		line 77 in file "main.c"
  4786 ;; Parameters:    Size  Location     Type
  4787 ;;  more            1    wreg     unsigned char 
  4788 ;; Auto vars:     Size  Location     Type
  4789 ;;  more            1    4[COMMON] unsigned char 
  4790 ;;  d               1    5[COMMON] unsigned char 
  4791 ;; Return value:  Size  Location     Type
  4792 ;;                  1    wreg      unsigned char 
  4793 ;; Registers used:
  4794 ;;		wreg, status,2, status,0, pclath, cstack
  4795 ;; Tracked objects:
  4796 ;;		On entry : 0/0
  4797 ;;		On exit  : 0/0
  4798 ;;		Unchanged: 0/0
  4799 ;; Data sizes:     COMMON   BANK0   BANK1   BANK3   BANK2
  4800 ;;      Params:         0       0       0       0       0
  4801 ;;      Locals:         2       0       0       0       0
  4802 ;;      Temps:          0       0       0       0       0
  4803 ;;      Totals:         2       0       0       0       0
  4804 ;;Total ram usage:        2 bytes
  4805 ;; Hardware stack levels used: 1
  4806 ;; Hardware stack levels required when called: 2
  4807 ;; This function calls:
  4808 ;;		_I2C_WaitIdle
  4809 ;; This function is called by:
  4810 ;;		_MAX_Read
  4811 ;;		_MAX30102_ReadFIFO
  4812 ;; This function uses a non-reentrant model
  4813 ;;
  4814                           
  4815     0B98                     _I2C_Read:	
  4816                           ;psect for function _I2C_Read
  4817                           
  4818                           
  4819                           ;incstack = 0
  4820                           ; Regs used in _I2C_Read: [wreg+status,2+status,0+pclath+cstack]
  4821                           ;I2C_Read@more stored from wreg
  4822     0B98  00F4               	movwf	I2C_Read@more
  4823     0B99                     l2774:
  4824     0B99  120A  158A  21E3  120A  158A  	fcall	_I2C_WaitIdle
  4825     0B9E                     l2776:
  4826     0B9E  1683               	bsf	3,5	;RP0=1, select bank1
  4827     0B9F  1303               	bcf	3,6	;RP1=0, select bank1
  4828     0BA0  1591               	bsf	17,3	;volatile
  4829     0BA1                     l165:
  4830     0BA1  1C14               	btfss	20,0	;volatile
  4831     0BA2  2BA4               	goto	u2851
  4832     0BA3  2BA5               	goto	u2850
  4833     0BA4                     u2851:
  4834     0BA4  2BA1               	goto	l165
  4835     0BA5                     u2850:
  4836     0BA5                     l2778:
  4837     0BA5  1283               	bcf	3,5	;RP0=0, select bank0
  4838     0BA6  1303               	bcf	3,6	;RP1=0, select bank0
  4839     0BA7  0813               	movf	19,w	;volatile
  4840     0BA8  00F5               	movwf	I2C_Read@d
  4841     0BA9                     l2780:
  4842     0BA9  120A  158A  21E3  120A  158A  	fcall	_I2C_WaitIdle
  4843     0BAE                     l2782:
  4844     0BAE  0874               	movf	I2C_Read@more,w
  4845     0BAF  1903               	btfsc	3,2
  4846     0BB0  2BB2               	goto	u2861
  4847     0BB1  2BB6               	goto	u2860
  4848     0BB2                     u2861:
  4849     0BB2  1683               	bsf	3,5	;RP0=1, select bank1
  4850     0BB3  1303               	bcf	3,6	;RP1=0, select bank1
  4851     0BB4  1691               	bsf	17,5	;volatile
  4852     0BB5  2BB9               	goto	u2874
  4853     0BB6                     u2860:
  4854     0BB6  1683               	bsf	3,5	;RP0=1, select bank1
  4855     0BB7  1303               	bcf	3,6	;RP1=0, select bank1
  4856     0BB8  1291               	bcf	17,5	;volatile
  4857     0BB9                     u2874:
  4858     0BB9                     l2784:
  4859     0BB9  1611               	bsf	17,4	;volatile
  4860     0BBA                     l168:
  4861     0BBA  1A11               	btfsc	17,4	;volatile
  4862     0BBB  2BBD               	goto	u2881
  4863     0BBC  2BBE               	goto	u2880
  4864     0BBD                     u2881:
  4865     0BBD  2BBA               	goto	l168
  4866     0BBE                     u2880:
  4867     0BBE                     l2786:
  4868     0BBE  0875               	movf	I2C_Read@d,w
  4869     0BBF                     l171:
  4870     0BBF  0008               	return
  4871     0BC0                     __end_of_I2C_Read:
  4872                           
  4873                           	psect	text20
  4874     0DA1                     __ptext20:	
  4875 ;; *************** function _MAX30102_Init *****************
  4876 ;; Defined at:
  4877 ;;		line 207 in file "main.c"
  4878 ;; Parameters:    Size  Location     Type
  4879 ;;		None
  4880 ;; Auto vars:     Size  Location     Type
  4881 ;;		None
  4882 ;; Return value:  Size  Location     Type
  4883 ;;                  1    wreg      void 
  4884 ;; Registers used:
  4885 ;;		wreg, status,2, status,0, pclath, cstack
  4886 ;; Tracked objects:
  4887 ;;		On entry : 0/0
  4888 ;;		On exit  : 0/0
  4889 ;;		Unchanged: 0/0
  4890 ;; Data sizes:     COMMON   BANK0   BANK1   BANK3   BANK2
  4891 ;;      Params:         0       0       0       0       0
  4892 ;;      Locals:         0       0       0       0       0
  4893 ;;      Temps:          0       3       0       0       0
  4894 ;;      Totals:         0       3       0       0       0
  4895 ;;Total ram usage:        3 bytes
  4896 ;; Hardware stack levels used: 1
  4897 ;; Hardware stack levels required when called: 4
  4898 ;; This function calls:
  4899 ;;		_MAX_Write
  4900 ;; This function is called by:
  4901 ;;		_main
  4902 ;; This function uses a non-reentrant model
  4903 ;;
  4904                           
  4905     0DA1                     _MAX30102_Init:	
  4906                           ;psect for function _MAX30102_Init
  4907                           
  4908     0DA1                     l3098:	
  4909                           ;incstack = 0
  4910                           ; Regs used in _MAX30102_Init: [wreg+status,2+status,0+pclath+cstack]
  4911                           
  4912                           
  4913                           ;main.c: 208:     MAX_Write(0x09, 0x40); _delay((unsigned long)((100)*(8000000UL/4000.0)
      +                          ));
  4914     0DA1  3040               	movlw	64
  4915     0DA2  00F5               	movwf	MAX_Write@val
  4916     0DA3  3009               	movlw	9
  4917     0DA4  120A  158A  229F  120A  158A  	fcall	_MAX_Write
  4918     0DA9                     l3100:
  4919     0DA9  3002               	movlw	2
  4920     0DAA  1283               	bcf	3,5	;RP0=0, select bank0
  4921     0DAB  1303               	bcf	3,6	;RP1=0, select bank0
  4922     0DAC  00A2               	movwf	??_MAX30102_Init+2
  4923     0DAD  3004               	movlw	4
  4924     0DAE  00A1               	movwf	??_MAX30102_Init+1
  4925     0DAF  30B9               	movlw	185
  4926     0DB0  00A0               	movwf	??_MAX30102_Init
  4927     0DB1                     u3877:
  4928     0DB1  0BA0               	decfsz	??_MAX30102_Init,f
  4929     0DB2  2DB1               	goto	u3877
  4930     0DB3  0BA1               	decfsz	??_MAX30102_Init+1,f
  4931     0DB4  2DB1               	goto	u3877
  4932     0DB5  0BA2               	decfsz	??_MAX30102_Init+2,f
  4933     0DB6  2DB1               	goto	u3877
  4934     0DB7  2DB8               	nop2
  4935     0DB8                     l3102:
  4936                           
  4937                           ;main.c: 209:     MAX_Write(0x08, 0x00);
  4938     0DB8  01F5               	clrf	MAX_Write@val
  4939     0DB9  3008               	movlw	8
  4940     0DBA  120A  158A  229F  120A  158A  	fcall	_MAX_Write
  4941     0DBF                     l3104:
  4942                           
  4943                           ;main.c: 210:     MAX_Write(0x02, 0x00); MAX_Write(0x03, 0x00);
  4944     0DBF  01F5               	clrf	MAX_Write@val
  4945     0DC0  3002               	movlw	2
  4946     0DC1  120A  158A  229F  120A  158A  	fcall	_MAX_Write
  4947     0DC6                     l3106:
  4948     0DC6  01F5               	clrf	MAX_Write@val
  4949     0DC7  3003               	movlw	3
  4950     0DC8  120A  158A  229F  120A  158A  	fcall	_MAX_Write
  4951     0DCD                     l3108:
  4952                           
  4953                           ;main.c: 211:     MAX_Write(0x09, 0x03);
  4954     0DCD  3003               	movlw	3
  4955     0DCE  00F5               	movwf	MAX_Write@val
  4956     0DCF  3009               	movlw	9
  4957     0DD0  120A  158A  229F  120A  158A  	fcall	_MAX_Write
  4958     0DD5                     l3110:
  4959                           
  4960                           ;main.c: 212:     MAX_Write(0x0A, 0x2F);
  4961     0DD5  302F               	movlw	47
  4962     0DD6  00F5               	movwf	MAX_Write@val
  4963     0DD7  300A               	movlw	10
  4964     0DD8  120A  158A  229F  120A  158A  	fcall	_MAX_Write
  4965     0DDD                     l3112:
  4966                           
  4967                           ;main.c: 213:     MAX_Write(0x0C, 0x1F);
  4968     0DDD  301F               	movlw	31
  4969     0DDE  00F5               	movwf	MAX_Write@val
  4970     0DDF  300C               	movlw	12
  4971     0DE0  120A  158A  229F  120A  158A  	fcall	_MAX_Write
  4972     0DE5                     l3114:
  4973                           
  4974                           ;main.c: 214:     MAX_Write(0x0D, 0x1F);
  4975     0DE5  301F               	movlw	31
  4976     0DE6  00F5               	movwf	MAX_Write@val
  4977     0DE7  300D               	movlw	13
  4978     0DE8  120A  158A  229F  120A  158A  	fcall	_MAX_Write
  4979     0DED                     l3116:
  4980                           
  4981                           ;main.c: 215:     MAX_Write(0x04, 0x00);
  4982     0DED  01F5               	clrf	MAX_Write@val
  4983     0DEE  3004               	movlw	4
  4984     0DEF  120A  158A  229F  120A  158A  	fcall	_MAX_Write
  4985     0DF4                     l3118:
  4986                           
  4987                           ;main.c: 216:     MAX_Write(0x05, 0x00);
  4988     0DF4  01F5               	clrf	MAX_Write@val
  4989     0DF5  3005               	movlw	5
  4990     0DF6  120A  158A  229F  120A  158A  	fcall	_MAX_Write
  4991     0DFB                     l3120:
  4992                           
  4993                           ;main.c: 217:     MAX_Write(0x06, 0x00);
  4994     0DFB  01F5               	clrf	MAX_Write@val
  4995     0DFC  3006               	movlw	6
  4996     0DFD  120A  158A  229F  120A  158A  	fcall	_MAX_Write
  4997     0E02                     l247:
  4998     0E02  0008               	return
  4999     0E03                     __end_of_MAX30102_Init:
  5000                           
  5001                           	psect	text21
  5002     0A9F                     __ptext21:	
  5003 ;; *************** function _MAX_Write *****************
  5004 ;; Defined at:
  5005 ;;		line 189 in file "main.c"
  5006 ;; Parameters:    Size  Location     Type
  5007 ;;  reg             1    wreg     unsigned char 
  5008 ;;  val             1    5[COMMON] unsigned char 
  5009 ;; Auto vars:     Size  Location     Type
  5010 ;;  reg             1    6[COMMON] unsigned char 
  5011 ;; Return value:  Size  Location     Type
  5012 ;;                  1    wreg      void 
  5013 ;; Registers used:
  5014 ;;		wreg, status,2, status,0, pclath, cstack
  5015 ;; Tracked objects:
  5016 ;;		On entry : 0/0
  5017 ;;		On exit  : 0/0
  5018 ;;		Unchanged: 0/0
  5019 ;; Data sizes:     COMMON   BANK0   BANK1   BANK3   BANK2
  5020 ;;      Params:         1       0       0       0       0
  5021 ;;      Locals:         1       0       0       0       0
  5022 ;;      Temps:          0       0       0       0       0
  5023 ;;      Totals:         2       0       0       0       0
  5024 ;;Total ram usage:        2 bytes
  5025 ;; Hardware stack levels used: 1
  5026 ;; Hardware stack levels required when called: 3
  5027 ;; This function calls:
  5028 ;;		_I2C_Start
  5029 ;;		_I2C_Stop
  5030 ;;		_I2C_Write
  5031 ;; This function is called by:
  5032 ;;		_MAX30102_Init
  5033 ;;		_MAX30102_Temp_dC10
  5034 ;; This function uses a non-reentrant model
  5035 ;;
  5036                           
  5037     0A9F                     _MAX_Write:	
  5038                           ;psect for function _MAX_Write
  5039                           
  5040                           
  5041                           ;incstack = 0
  5042                           ; Regs used in _MAX_Write: [wreg+status,2+status,0+pclath+cstack]
  5043                           ;MAX_Write@reg stored from wreg
  5044     0A9F  00F6               	movwf	MAX_Write@reg
  5045     0AA0                     l2828:
  5046                           
  5047                           ;main.c: 190:     I2C_Start();
  5048     0AA0  120A  158A  21F0  120A  158A  	fcall	_I2C_Start
  5049                           
  5050                           ;main.c: 191:     I2C_Write((0x57<<1)|0);
  5051     0AA5  30AE               	movlw	174
  5052     0AA6  120A  158A  2226  120A  158A  	fcall	_I2C_Write
  5053                           
  5054                           ;main.c: 192:     I2C_Write(reg);
  5055     0AAB  0876               	movf	MAX_Write@reg,w
  5056     0AAC  120A  158A  2226  120A  158A  	fcall	_I2C_Write
  5057                           
  5058                           ;main.c: 193:     I2C_Write(val);
  5059     0AB1  0875               	movf	MAX_Write@val,w
  5060     0AB2  120A  158A  2226  120A  158A  	fcall	_I2C_Write
  5061                           
  5062                           ;main.c: 194:     I2C_Stop();
  5063     0AB7  120A  158A  21FD  120A  158A  	fcall	_I2C_Stop
  5064     0ABC                     l241:
  5065     0ABC  0008               	return
  5066     0ABD                     __end_of_MAX_Write:
  5067                           
  5068                           	psect	text22
  5069     0535                     __ptext22:	
  5070 ;; *************** function _LCD_PrintDeciC *****************
  5071 ;; Defined at:
  5072 ;;		line 157 in file "main.c"
  5073 ;; Parameters:    Size  Location     Type
  5074 ;;  dC10            2    8[BANK0 ] short 
  5075 ;; Auto vars:     Size  Location     Type
  5076 ;;  b               6   12[BANK0 ] unsigned char [6]
  5077 ;;  i               1   21[BANK0 ] unsigned char 
  5078 ;;  neg             1   20[BANK0 ] unsigned char 
  5079 ;;  ip              2   22[BANK0 ] short 
  5080 ;;  fp              2   18[BANK0 ] short 
  5081 ;; Return value:  Size  Location     Type
  5082 ;;                  1    wreg      void 
  5083 ;; Registers used:
  5084 ;;		wreg, fsr0l, fsr0h, status,2, status,0, pclath, cstack
  5085 ;; Tracked objects:
  5086 ;;		On entry : 0/0
  5087 ;;		On exit  : 0/0
  5088 ;;		Unchanged: 0/0
  5089 ;; Data sizes:     COMMON   BANK0   BANK1   BANK3   BANK2
  5090 ;;      Params:         0       2       0       0       0
  5091 ;;      Locals:         0      12       0       0       0
  5092 ;;      Temps:          0       2       0       0       0
  5093 ;;      Totals:         0      16       0       0       0
  5094 ;;Total ram usage:       16 bytes
  5095 ;; Hardware stack levels used: 1
  5096 ;; Hardware stack levels required when called: 6
  5097 ;; This function calls:
  5098 ;;		_LCD_Write_Char
  5099 ;;		___awdiv
  5100 ;;		___awmod
  5101 ;; This function is called by:
  5102 ;;		_main
  5103 ;; This function uses a non-reentrant model
  5104 ;;
  5105                           
  5106     0535                     _LCD_PrintDeciC:	
  5107                           ;psect for function _LCD_PrintDeciC
  5108                           
  5109     0535                     l3046:	
  5110                           ;incstack = 0
  5111                           ; Regs used in _LCD_PrintDeciC: [wreg-fsr0h+status,2+status,0+pclath+cstack]
  5112                           
  5113                           
  5114                           ;main.c: 158:     int16_t ip = dC10 / 10;
  5115     0535  300A               	movlw	10
  5116     0536  1283               	bcf	3,5	;RP0=0, select bank0
  5117     0537  1303               	bcf	3,6	;RP1=0, select bank0
  5118     0538  00A0               	movwf	___awdiv@divisor
  5119     0539  3000               	movlw	0
  5120     053A  00A1               	movwf	___awdiv@divisor+1
  5121     053B  0829               	movf	LCD_PrintDeciC@dC10+1,w
  5122     053C  00A3               	movwf	___awdiv@dividend+1
  5123     053D  0828               	movf	LCD_PrintDeciC@dC10,w
  5124     053E  00A2               	movwf	___awdiv@dividend
  5125     053F  120A  158A  2665  120A  118A  	fcall	___awdiv
  5126     0544  1283               	bcf	3,5	;RP0=0, select bank0
  5127     0545  1303               	bcf	3,6	;RP1=0, select bank0
  5128     0546  0821               	movf	?___awdiv+1,w
  5129     0547  00B7               	movwf	LCD_PrintDeciC@ip+1
  5130     0548  0820               	movf	?___awdiv,w
  5131     0549  00B6               	movwf	LCD_PrintDeciC@ip
  5132     054A                     l3048:
  5133                           
  5134                           ;main.c: 159:     int16_t fp = (dC10 < 0) ? -(dC10 % 10) : (dC10 % 10);
  5135     054A  1BA9               	btfsc	LCD_PrintDeciC@dC10+1,7
  5136     054B  2D4D               	goto	u3221
  5137     054C  2D4E               	goto	u3220
  5138     054D                     u3221:
  5139     054D  2D62               	goto	l3052
  5140     054E                     u3220:
  5141     054E                     l3050:
  5142     054E  300A               	movlw	10
  5143     054F  00A0               	movwf	___awmod@divisor
  5144     0550  3000               	movlw	0
  5145     0551  00A1               	movwf	___awmod@divisor+1
  5146     0552  0829               	movf	LCD_PrintDeciC@dC10+1,w
  5147     0553  00A3               	movwf	___awmod@dividend+1
  5148     0554  0828               	movf	LCD_PrintDeciC@dC10,w
  5149     0555  00A2               	movwf	___awmod@dividend
  5150     0556  120A  158A  2548  120A  118A  	fcall	___awmod
  5151     055B  1283               	bcf	3,5	;RP0=0, select bank0
  5152     055C  1303               	bcf	3,6	;RP1=0, select bank0
  5153     055D  0821               	movf	?___awmod+1,w
  5154     055E  00B3               	movwf	LCD_PrintDeciC@fp+1
  5155     055F  0820               	movf	?___awmod,w
  5156     0560  00B2               	movwf	LCD_PrintDeciC@fp
  5157     0561  2D7C               	goto	l3054
  5158     0562                     l3052:
  5159     0562  300A               	movlw	10
  5160     0563  00A0               	movwf	___awmod@divisor
  5161     0564  3000               	movlw	0
  5162     0565  00A1               	movwf	___awmod@divisor+1
  5163     0566  0829               	movf	LCD_PrintDeciC@dC10+1,w
  5164     0567  00A3               	movwf	___awmod@dividend+1
  5165     0568  0828               	movf	LCD_PrintDeciC@dC10,w
  5166     0569  00A2               	movwf	___awmod@dividend
  5167     056A  120A  158A  2548  120A  118A  	fcall	___awmod
  5168     056F  1283               	bcf	3,5	;RP0=0, select bank0
  5169     0570  1303               	bcf	3,6	;RP1=0, select bank0
  5170     0571  0920               	comf	?___awmod,w
  5171     0572  00AA               	movwf	??_LCD_PrintDeciC
  5172     0573  0921               	comf	?___awmod+1,w
  5173     0574  00AB               	movwf	??_LCD_PrintDeciC+1
  5174     0575  0AAA               	incf	??_LCD_PrintDeciC,f
  5175     0576  1903               	skipnz
  5176     0577  0AAB               	incf	??_LCD_PrintDeciC+1,f
  5177     0578  082A               	movf	??_LCD_PrintDeciC,w
  5178     0579  00B2               	movwf	LCD_PrintDeciC@fp
  5179     057A  082B               	movf	??_LCD_PrintDeciC+1,w
  5180     057B  00B3               	movwf	LCD_PrintDeciC@fp+1
  5181     057C                     l3054:
  5182                           
  5183                           ;main.c: 160:     if(ip==0){ LCD_Write_Char('0'); }
  5184     057C  0836               	movf	LCD_PrintDeciC@ip,w
  5185     057D  0437               	iorwf	LCD_PrintDeciC@ip+1,w
  5186     057E  1D03               	btfss	3,2
  5187     057F  2D81               	goto	u3231
  5188     0580  2D82               	goto	u3230
  5189     0581                     u3231:
  5190     0581  2D89               	goto	l3058
  5191     0582                     u3230:
  5192     0582                     l3056:
  5193     0582  3030               	movlw	48
  5194     0583  120A  158A  2323  120A  118A  	fcall	_LCD_Write_Char
  5195     0588  2DED               	goto	l3084
  5196     0589                     l3058:
  5197                           
  5198                           ;main.c: 162:         char b[6]; uint8_t i=0; uint8_t neg=0;
  5199     0589  01B5               	clrf	LCD_PrintDeciC@i
  5200     058A  01B4               	clrf	LCD_PrintDeciC@neg
  5201     058B                     l3060:
  5202                           
  5203                           ;main.c: 163:         if(ip<0){ neg=1; ip = -ip; }
  5204     058B  1FB7               	btfss	LCD_PrintDeciC@ip+1,7
  5205     058C  2D8E               	goto	u3241
  5206     058D  2D8F               	goto	u3240
  5207     058E                     u3241:
  5208     058E  2DC2               	goto	l3072
  5209     058F                     u3240:
  5210     058F                     l3062:
  5211     058F  3001               	movlw	1
  5212     0590  00B4               	movwf	LCD_PrintDeciC@neg
  5213     0591                     l3064:
  5214     0591  09B6               	comf	LCD_PrintDeciC@ip,f
  5215     0592  09B7               	comf	LCD_PrintDeciC@ip+1,f
  5216     0593  0AB6               	incf	LCD_PrintDeciC@ip,f
  5217     0594  1903               	skipnz
  5218     0595  0AB7               	incf	LCD_PrintDeciC@ip+1,f
  5219     0596  2DC2               	goto	l3072
  5220     0597                     l3066:
  5221     0597  0835               	movf	LCD_PrintDeciC@i,w
  5222     0598  3E2C               	addlw	(low (LCD_PrintDeciC@b| 0))& (0+255)
  5223     0599  0084               	movwf	4
  5224     059A  300A               	movlw	10
  5225     059B  00A0               	movwf	___awmod@divisor
  5226     059C  3000               	movlw	0
  5227     059D  00A1               	movwf	___awmod@divisor+1
  5228     059E  0837               	movf	LCD_PrintDeciC@ip+1,w
  5229     059F  00A3               	movwf	___awmod@dividend+1
  5230     05A0  0836               	movf	LCD_PrintDeciC@ip,w
  5231     05A1  00A2               	movwf	___awmod@dividend
  5232     05A2  120A  158A  2548  120A  118A  	fcall	___awmod
  5233     05A7  1283               	bcf	3,5	;RP0=0, select bank0
  5234     05A8  1303               	bcf	3,6	;RP1=0, select bank0
  5235     05A9  0820               	movf	?___awmod,w
  5236     05AA  3E30               	addlw	48
  5237     05AB  1383               	bcf	3,7	;select IRP bank0
  5238     05AC  0080               	movwf	0
  5239     05AD                     l3068:
  5240     05AD  3001               	movlw	1
  5241     05AE  07B5               	addwf	LCD_PrintDeciC@i,f
  5242     05AF                     l3070:
  5243     05AF  300A               	movlw	10
  5244     05B0  00A0               	movwf	___awdiv@divisor
  5245     05B1  3000               	movlw	0
  5246     05B2  00A1               	movwf	___awdiv@divisor+1
  5247     05B3  0837               	movf	LCD_PrintDeciC@ip+1,w
  5248     05B4  00A3               	movwf	___awdiv@dividend+1
  5249     05B5  0836               	movf	LCD_PrintDeciC@ip,w
  5250     05B6  00A2               	movwf	___awdiv@dividend
  5251     05B7  120A  158A  2665  120A  118A  	fcall	___awdiv
  5252     05BC  1283               	bcf	3,5	;RP0=0, select bank0
  5253     05BD  1303               	bcf	3,6	;RP1=0, select bank0
  5254     05BE  0821               	movf	?___awdiv+1,w
  5255     05BF  00B7               	movwf	LCD_PrintDeciC@ip+1
  5256     05C0  0820               	movf	?___awdiv,w
  5257     05C1  00B6               	movwf	LCD_PrintDeciC@ip
  5258     05C2                     l3072:
  5259     05C2  0836               	movf	LCD_PrintDeciC@ip,w
  5260     05C3  0437               	iorwf	LCD_PrintDeciC@ip+1,w
  5261     05C4  1903               	btfsc	3,2
  5262     05C5  2DC7               	goto	u3251
  5263     05C6  2DC8               	goto	u3250
  5264     05C7                     u3251:
  5265     05C7  2DCE               	goto	l3076
  5266     05C8                     u3250:
  5267     05C8                     l3074:
  5268     05C8  3005               	movlw	5
  5269     05C9  0235               	subwf	LCD_PrintDeciC@i,w
  5270     05CA  1C03               	skipc
  5271     05CB  2DCD               	goto	u3261
  5272     05CC  2DCE               	goto	u3260
  5273     05CD                     u3261:
  5274     05CD  2D97               	goto	l3066
  5275     05CE                     u3260:
  5276     05CE                     l3076:
  5277                           
  5278                           ;main.c: 165:         if(neg) LCD_Write_Char('-');
  5279     05CE  0834               	movf	LCD_PrintDeciC@neg,w
  5280     05CF  1903               	btfsc	3,2
  5281     05D0  2DD2               	goto	u3271
  5282     05D1  2DD3               	goto	u3270
  5283     05D2                     u3271:
  5284     05D2  2DE4               	goto	l3082
  5285     05D3                     u3270:
  5286     05D3                     l3078:
  5287     05D3  302D               	movlw	45
  5288     05D4  120A  158A  2323  120A  118A  	fcall	_LCD_Write_Char
  5289     05D9  2DE4               	goto	l3082
  5290     05DA                     l3080:
  5291     05DA  0835               	movf	LCD_PrintDeciC@i,w
  5292     05DB  3E2C               	addlw	(low (LCD_PrintDeciC@b| 0))& (0+255)
  5293     05DC  0084               	movwf	4
  5294     05DD  1383               	bcf	3,7	;select IRP bank0
  5295     05DE  0800               	movf	0,w
  5296     05DF  120A  158A  2323  120A  118A  	fcall	_LCD_Write_Char
  5297     05E4                     l3082:
  5298     05E4  3001               	movlw	1
  5299     05E5  1283               	bcf	3,5	;RP0=0, select bank0
  5300     05E6  1303               	bcf	3,6	;RP1=0, select bank0
  5301     05E7  02B5               	subwf	LCD_PrintDeciC@i,f
  5302     05E8  0A35               	incf	LCD_PrintDeciC@i,w
  5303     05E9  1D03               	btfss	3,2
  5304     05EA  2DEC               	goto	u3281
  5305     05EB  2DED               	goto	u3280
  5306     05EC                     u3281:
  5307     05EC  2DDA               	goto	l3080
  5308     05ED                     u3280:
  5309     05ED                     l3084:
  5310                           
  5311                           ;main.c: 168:     LCD_Write_Char('.');
  5312     05ED  302E               	movlw	46
  5313     05EE  120A  158A  2323  120A  118A  	fcall	_LCD_Write_Char
  5314                           
  5315                           ;main.c: 169:     LCD_Write_Char((char)('0'+fp));
  5316     05F3  1283               	bcf	3,5	;RP0=0, select bank0
  5317     05F4  1303               	bcf	3,6	;RP1=0, select bank0
  5318     05F5  0832               	movf	LCD_PrintDeciC@fp,w
  5319     05F6  3E30               	addlw	48
  5320     05F7  120A  158A  2323  120A  118A  	fcall	_LCD_Write_Char
  5321                           
  5322                           ;main.c: 170:     LCD_Write_Char('C');
  5323     05FC  3043               	movlw	67
  5324     05FD  120A  158A  2323  120A  118A  	fcall	_LCD_Write_Char
  5325     0602                     l229:
  5326     0602  0008               	return
  5327     0603                     __end_of_LCD_PrintDeciC:
  5328                           
  5329                           	psect	text23
  5330     0D48                     __ptext23:	
  5331 ;; *************** function ___awmod *****************
  5332 ;; Defined at:
  5333 ;;		line 5 in file "C:\Program Files\Microchip\xc8\v3.00\pic\sources\c99\common\awmod.c"
  5334 ;; Parameters:    Size  Location     Type
  5335 ;;  divisor         2    0[BANK0 ] int 
  5336 ;;  dividend        2    2[BANK0 ] int 
  5337 ;; Auto vars:     Size  Location     Type
  5338 ;;  sign            1    5[COMMON] unsigned char 
  5339 ;;  counter         1    4[COMMON] unsigned char 
  5340 ;; Return value:  Size  Location     Type
  5341 ;;                  2    0[BANK0 ] int 
  5342 ;; Registers used:
  5343 ;;		wreg, status,2, status,0
  5344 ;; Tracked objects:
  5345 ;;		On entry : 0/0
  5346 ;;		On exit  : 0/0
  5347 ;;		Unchanged: 0/0
  5348 ;; Data sizes:     COMMON   BANK0   BANK1   BANK3   BANK2
  5349 ;;      Params:         0       4       0       0       0
  5350 ;;      Locals:         2       0       0       0       0
  5351 ;;      Temps:          0       0       0       0       0
  5352 ;;      Totals:         2       4       0       0       0
  5353 ;;Total ram usage:        6 bytes
  5354 ;; Hardware stack levels used: 1
  5355 ;; Hardware stack levels required when called: 1
  5356 ;; This function calls:
  5357 ;;		Nothing
  5358 ;; This function is called by:
  5359 ;;		_LCD_PrintDeciC
  5360 ;; This function uses a non-reentrant model
  5361 ;;
  5362                           
  5363     0D48                     ___awmod:	
  5364                           ;psect for function ___awmod
  5365                           
  5366     0D48                     l2954:	
  5367                           ;incstack = 0
  5368                           ; Regs used in ___awmod: [wreg+status,2+status,0]
  5369                           
  5370     0D48  01F5               	clrf	___awmod@sign
  5371     0D49                     l2956:
  5372     0D49  1283               	bcf	3,5	;RP0=0, select bank0
  5373     0D4A  1303               	bcf	3,6	;RP1=0, select bank0
  5374     0D4B  1FA3               	btfss	___awmod@dividend+1,7
  5375     0D4C  2D4E               	goto	u3091
  5376     0D4D  2D4F               	goto	u3090
  5377     0D4E                     u3091:
  5378     0D4E  2D56               	goto	l2962
  5379     0D4F                     u3090:
  5380     0D4F                     l2958:
  5381     0D4F  09A2               	comf	___awmod@dividend,f
  5382     0D50  09A3               	comf	___awmod@dividend+1,f
  5383     0D51  0AA2               	incf	___awmod@dividend,f
  5384     0D52  1903               	skipnz
  5385     0D53  0AA3               	incf	___awmod@dividend+1,f
  5386     0D54                     l2960:
  5387     0D54  3001               	movlw	1
  5388     0D55  00F5               	movwf	___awmod@sign
  5389     0D56                     l2962:
  5390     0D56  1FA1               	btfss	___awmod@divisor+1,7
  5391     0D57  2D59               	goto	u3101
  5392     0D58  2D5A               	goto	u3100
  5393     0D59                     u3101:
  5394     0D59  2D5F               	goto	l2966
  5395     0D5A                     u3100:
  5396     0D5A                     l2964:
  5397     0D5A  09A0               	comf	___awmod@divisor,f
  5398     0D5B  09A1               	comf	___awmod@divisor+1,f
  5399     0D5C  0AA0               	incf	___awmod@divisor,f
  5400     0D5D  1903               	skipnz
  5401     0D5E  0AA1               	incf	___awmod@divisor+1,f
  5402     0D5F                     l2966:
  5403     0D5F  0820               	movf	___awmod@divisor,w
  5404     0D60  0421               	iorwf	___awmod@divisor+1,w
  5405     0D61  1903               	btfsc	3,2
  5406     0D62  2D64               	goto	u3111
  5407     0D63  2D65               	goto	u3110
  5408     0D64                     u3111:
  5409     0D64  2D92               	goto	l2984
  5410     0D65                     u3110:
  5411     0D65                     l2968:
  5412     0D65  3001               	movlw	1
  5413     0D66  00F4               	movwf	___awmod@counter
  5414     0D67  2D71               	goto	l2974
  5415     0D68                     l2970:
  5416     0D68  3001               	movlw	1
  5417     0D69                     u3125:
  5418     0D69  1003               	clrc
  5419     0D6A  0DA0               	rlf	___awmod@divisor,f
  5420     0D6B  0DA1               	rlf	___awmod@divisor+1,f
  5421     0D6C  3EFF               	addlw	-1
  5422     0D6D  1D03               	skipz
  5423     0D6E  2D69               	goto	u3125
  5424     0D6F                     l2972:
  5425     0D6F  3001               	movlw	1
  5426     0D70  07F4               	addwf	___awmod@counter,f
  5427     0D71                     l2974:
  5428     0D71  1FA1               	btfss	___awmod@divisor+1,7
  5429     0D72  2D74               	goto	u3131
  5430     0D73  2D75               	goto	u3130
  5431     0D74                     u3131:
  5432     0D74  2D68               	goto	l2970
  5433     0D75                     u3130:
  5434     0D75                     l2976:
  5435     0D75  0821               	movf	___awmod@divisor+1,w
  5436     0D76  0223               	subwf	___awmod@dividend+1,w
  5437     0D77  1D03               	skipz
  5438     0D78  2D7B               	goto	u3145
  5439     0D79  0820               	movf	___awmod@divisor,w
  5440     0D7A  0222               	subwf	___awmod@dividend,w
  5441     0D7B                     u3145:
  5442     0D7B  1C03               	skipc
  5443     0D7C  2D7E               	goto	u3141
  5444     0D7D  2D7F               	goto	u3140
  5445     0D7E                     u3141:
  5446     0D7E  2D85               	goto	l2980
  5447     0D7F                     u3140:
  5448     0D7F                     l2978:
  5449     0D7F  0820               	movf	___awmod@divisor,w
  5450     0D80  02A2               	subwf	___awmod@dividend,f
  5451     0D81  0821               	movf	___awmod@divisor+1,w
  5452     0D82  1C03               	skipc
  5453     0D83  03A3               	decf	___awmod@dividend+1,f
  5454     0D84  02A3               	subwf	___awmod@dividend+1,f
  5455     0D85                     l2980:
  5456     0D85  3001               	movlw	1
  5457     0D86                     u3155:
  5458     0D86  1003               	clrc
  5459     0D87  0CA1               	rrf	___awmod@divisor+1,f
  5460     0D88  0CA0               	rrf	___awmod@divisor,f
  5461     0D89  3EFF               	addlw	-1
  5462     0D8A  1D03               	skipz
  5463     0D8B  2D86               	goto	u3155
  5464     0D8C                     l2982:
  5465     0D8C  3001               	movlw	1
  5466     0D8D  02F4               	subwf	___awmod@counter,f
  5467     0D8E  1D03               	btfss	3,2
  5468     0D8F  2D91               	goto	u3161
  5469     0D90  2D92               	goto	u3160
  5470     0D91                     u3161:
  5471     0D91  2D75               	goto	l2976
  5472     0D92                     u3160:
  5473     0D92                     l2984:
  5474     0D92  0875               	movf	___awmod@sign,w
  5475     0D93  1903               	btfsc	3,2
  5476     0D94  2D96               	goto	u3171
  5477     0D95  2D97               	goto	u3170
  5478     0D96                     u3171:
  5479     0D96  2D9C               	goto	l2988
  5480     0D97                     u3170:
  5481     0D97                     l2986:
  5482     0D97  09A2               	comf	___awmod@dividend,f
  5483     0D98  09A3               	comf	___awmod@dividend+1,f
  5484     0D99  0AA2               	incf	___awmod@dividend,f
  5485     0D9A  1903               	skipnz
  5486     0D9B  0AA3               	incf	___awmod@dividend+1,f
  5487     0D9C                     l2988:
  5488     0D9C  0823               	movf	___awmod@dividend+1,w
  5489     0D9D  00A1               	movwf	?___awmod+1
  5490     0D9E  0822               	movf	___awmod@dividend,w
  5491     0D9F  00A0               	movwf	?___awmod
  5492     0DA0                     l586:
  5493     0DA0  0008               	return
  5494     0DA1                     __end_of___awmod:
  5495                           
  5496                           	psect	text24
  5497     0E65                     __ptext24:	
  5498 ;; *************** function ___awdiv *****************
  5499 ;; Defined at:
  5500 ;;		line 5 in file "C:\Program Files\Microchip\xc8\v3.00\pic\sources\c99\common\awdiv.c"
  5501 ;; Parameters:    Size  Location     Type
  5502 ;;  divisor         2    0[BANK0 ] int 
  5503 ;;  dividend        2    2[BANK0 ] int 
  5504 ;; Auto vars:     Size  Location     Type
  5505 ;;  quotient        2    6[BANK0 ] int 
  5506 ;;  sign            1    5[BANK0 ] unsigned char 
  5507 ;;  counter         1    4[BANK0 ] unsigned char 
  5508 ;; Return value:  Size  Location     Type
  5509 ;;                  2    0[BANK0 ] int 
  5510 ;; Registers used:
  5511 ;;		wreg, status,2, status,0
  5512 ;; Tracked objects:
  5513 ;;		On entry : 0/0
  5514 ;;		On exit  : 0/0
  5515 ;;		Unchanged: 0/0
  5516 ;; Data sizes:     COMMON   BANK0   BANK1   BANK3   BANK2
  5517 ;;      Params:         0       4       0       0       0
  5518 ;;      Locals:         0       4       0       0       0
  5519 ;;      Temps:          0       0       0       0       0
  5520 ;;      Totals:         0       8       0       0       0
  5521 ;;Total ram usage:        8 bytes
  5522 ;; Hardware stack levels used: 1
  5523 ;; Hardware stack levels required when called: 1
  5524 ;; This function calls:
  5525 ;;		Nothing
  5526 ;; This function is called by:
  5527 ;;		_LCD_PrintDeciC
  5528 ;; This function uses a non-reentrant model
  5529 ;;
  5530                           
  5531     0E65                     ___awdiv:	
  5532                           ;psect for function ___awdiv
  5533                           
  5534     0E65                     l2910:	
  5535                           ;incstack = 0
  5536                           ; Regs used in ___awdiv: [wreg+status,2+status,0]
  5537                           
  5538     0E65  1283               	bcf	3,5	;RP0=0, select bank0
  5539     0E66  1303               	bcf	3,6	;RP1=0, select bank0
  5540     0E67  01A5               	clrf	___awdiv@sign
  5541     0E68                     l2912:
  5542     0E68  1FA1               	btfss	___awdiv@divisor+1,7
  5543     0E69  2E6B               	goto	u2991
  5544     0E6A  2E6C               	goto	u2990
  5545     0E6B                     u2991:
  5546     0E6B  2E73               	goto	l2918
  5547     0E6C                     u2990:
  5548     0E6C                     l2914:
  5549     0E6C  09A0               	comf	___awdiv@divisor,f
  5550     0E6D  09A1               	comf	___awdiv@divisor+1,f
  5551     0E6E  0AA0               	incf	___awdiv@divisor,f
  5552     0E6F  1903               	skipnz
  5553     0E70  0AA1               	incf	___awdiv@divisor+1,f
  5554     0E71                     l2916:
  5555     0E71  3001               	movlw	1
  5556     0E72  00A5               	movwf	___awdiv@sign
  5557     0E73                     l2918:
  5558     0E73  1FA3               	btfss	___awdiv@dividend+1,7
  5559     0E74  2E76               	goto	u3001
  5560     0E75  2E77               	goto	u3000
  5561     0E76                     u3001:
  5562     0E76  2E7E               	goto	l2924
  5563     0E77                     u3000:
  5564     0E77                     l2920:
  5565     0E77  09A2               	comf	___awdiv@dividend,f
  5566     0E78  09A3               	comf	___awdiv@dividend+1,f
  5567     0E79  0AA2               	incf	___awdiv@dividend,f
  5568     0E7A  1903               	skipnz
  5569     0E7B  0AA3               	incf	___awdiv@dividend+1,f
  5570     0E7C                     l2922:
  5571     0E7C  3001               	movlw	1
  5572     0E7D  06A5               	xorwf	___awdiv@sign,f
  5573     0E7E                     l2924:
  5574     0E7E  01A6               	clrf	___awdiv@quotient
  5575     0E7F  01A7               	clrf	___awdiv@quotient+1
  5576     0E80                     l2926:
  5577     0E80  0820               	movf	___awdiv@divisor,w
  5578     0E81  0421               	iorwf	___awdiv@divisor+1,w
  5579     0E82  1903               	btfsc	3,2
  5580     0E83  2E85               	goto	u3011
  5581     0E84  2E86               	goto	u3010
  5582     0E85                     u3011:
  5583     0E85  2EBB               	goto	l2946
  5584     0E86                     u3010:
  5585     0E86                     l2928:
  5586     0E86  3001               	movlw	1
  5587     0E87  00A4               	movwf	___awdiv@counter
  5588     0E88  2E92               	goto	l2934
  5589     0E89                     l2930:
  5590     0E89  3001               	movlw	1
  5591     0E8A                     u3025:
  5592     0E8A  1003               	clrc
  5593     0E8B  0DA0               	rlf	___awdiv@divisor,f
  5594     0E8C  0DA1               	rlf	___awdiv@divisor+1,f
  5595     0E8D  3EFF               	addlw	-1
  5596     0E8E  1D03               	skipz
  5597     0E8F  2E8A               	goto	u3025
  5598     0E90                     l2932:
  5599     0E90  3001               	movlw	1
  5600     0E91  07A4               	addwf	___awdiv@counter,f
  5601     0E92                     l2934:
  5602     0E92  1FA1               	btfss	___awdiv@divisor+1,7
  5603     0E93  2E95               	goto	u3031
  5604     0E94  2E96               	goto	u3030
  5605     0E95                     u3031:
  5606     0E95  2E89               	goto	l2930
  5607     0E96                     u3030:
  5608     0E96                     l2936:
  5609     0E96  3001               	movlw	1
  5610     0E97                     u3045:
  5611     0E97  1003               	clrc
  5612     0E98  0DA6               	rlf	___awdiv@quotient,f
  5613     0E99  0DA7               	rlf	___awdiv@quotient+1,f
  5614     0E9A  3EFF               	addlw	-1
  5615     0E9B  1D03               	skipz
  5616     0E9C  2E97               	goto	u3045
  5617     0E9D  0821               	movf	___awdiv@divisor+1,w
  5618     0E9E  0223               	subwf	___awdiv@dividend+1,w
  5619     0E9F  1D03               	skipz
  5620     0EA0  2EA3               	goto	u3055
  5621     0EA1  0820               	movf	___awdiv@divisor,w
  5622     0EA2  0222               	subwf	___awdiv@dividend,w
  5623     0EA3                     u3055:
  5624     0EA3  1C03               	skipc
  5625     0EA4  2EA6               	goto	u3051
  5626     0EA5  2EA7               	goto	u3050
  5627     0EA6                     u3051:
  5628     0EA6  2EAE               	goto	l2942
  5629     0EA7                     u3050:
  5630     0EA7                     l2938:
  5631     0EA7  0820               	movf	___awdiv@divisor,w
  5632     0EA8  02A2               	subwf	___awdiv@dividend,f
  5633     0EA9  0821               	movf	___awdiv@divisor+1,w
  5634     0EAA  1C03               	skipc
  5635     0EAB  03A3               	decf	___awdiv@dividend+1,f
  5636     0EAC  02A3               	subwf	___awdiv@dividend+1,f
  5637     0EAD                     l2940:
  5638     0EAD  1426               	bsf	___awdiv@quotient,0
  5639     0EAE                     l2942:
  5640     0EAE  3001               	movlw	1
  5641     0EAF                     u3065:
  5642     0EAF  1003               	clrc
  5643     0EB0  0CA1               	rrf	___awdiv@divisor+1,f
  5644     0EB1  0CA0               	rrf	___awdiv@divisor,f
  5645     0EB2  3EFF               	addlw	-1
  5646     0EB3  1D03               	skipz
  5647     0EB4  2EAF               	goto	u3065
  5648     0EB5                     l2944:
  5649     0EB5  3001               	movlw	1
  5650     0EB6  02A4               	subwf	___awdiv@counter,f
  5651     0EB7  1D03               	btfss	3,2
  5652     0EB8  2EBA               	goto	u3071
  5653     0EB9  2EBB               	goto	u3070
  5654     0EBA                     u3071:
  5655     0EBA  2E96               	goto	l2936
  5656     0EBB                     u3070:
  5657     0EBB                     l2946:
  5658     0EBB  0825               	movf	___awdiv@sign,w
  5659     0EBC  1903               	btfsc	3,2
  5660     0EBD  2EBF               	goto	u3081
  5661     0EBE  2EC0               	goto	u3080
  5662     0EBF                     u3081:
  5663     0EBF  2EC5               	goto	l2950
  5664     0EC0                     u3080:
  5665     0EC0                     l2948:
  5666     0EC0  09A6               	comf	___awdiv@quotient,f
  5667     0EC1  09A7               	comf	___awdiv@quotient+1,f
  5668     0EC2  0AA6               	incf	___awdiv@quotient,f
  5669     0EC3  1903               	skipnz
  5670     0EC4  0AA7               	incf	___awdiv@quotient+1,f
  5671     0EC5                     l2950:
  5672     0EC5  0827               	movf	___awdiv@quotient+1,w
  5673     0EC6  00A1               	movwf	?___awdiv+1
  5674     0EC7  0826               	movf	___awdiv@quotient,w
  5675     0EC8  00A0               	movwf	?___awdiv
  5676     0EC9                     l573:
  5677     0EC9  0008               	return
  5678     0ECA                     __end_of___awdiv:
  5679                           
  5680                           	psect	text25
  5681     0ECA                     __ptext25:	
  5682 ;; *************** function _LCD_Init *****************
  5683 ;; Defined at:
  5684 ;;		line 141 in file "main.c"
  5685 ;; Parameters:    Size  Location     Type
  5686 ;;  I2C_Add         1    wreg     unsigned char 
  5687 ;; Auto vars:     Size  Location     Type
  5688 ;;  I2C_Add         1    6[BANK0 ] unsigned char 
  5689 ;; Return value:  Size  Location     Type
  5690 ;;                  1    wreg      void 
  5691 ;; Registers used:
  5692 ;;		wreg, status,2, status,0, pclath, cstack
  5693 ;; Tracked objects:
  5694 ;;		On entry : 0/0
  5695 ;;		On exit  : 0/0
  5696 ;;		Unchanged: 0/0
  5697 ;; Data sizes:     COMMON   BANK0   BANK1   BANK3   BANK2
  5698 ;;      Params:         0       0       0       0       0
  5699 ;;      Locals:         0       1       0       0       0
  5700 ;;      Temps:          0       2       0       0       0
  5701 ;;      Totals:         0       3       0       0       0
  5702 ;;Total ram usage:        3 bytes
  5703 ;; Hardware stack levels used: 1
  5704 ;; Hardware stack levels required when called: 6
  5705 ;; This function calls:
  5706 ;;		_IO_Expander_Write
  5707 ;;		_LCD_CMD
  5708 ;; This function is called by:
  5709 ;;		_main
  5710 ;; This function uses a non-reentrant model
  5711 ;;
  5712                           
  5713     0ECA                     _LCD_Init:	
  5714                           ;psect for function _LCD_Init
  5715                           
  5716                           
  5717                           ;incstack = 0
  5718                           ; Regs used in _LCD_Init: [wreg+status,2+status,0+pclath+cstack]
  5719                           ;LCD_Init@I2C_Add stored from wreg
  5720     0ECA  1283               	bcf	3,5	;RP0=0, select bank0
  5721     0ECB  1303               	bcf	3,6	;RP1=0, select bank0
  5722     0ECC  00A6               	movwf	LCD_Init@I2C_Add
  5723     0ECD                     l3020:
  5724                           
  5725                           ;main.c: 142:     i2c_add = I2C_Add;
  5726     0ECD  0826               	movf	LCD_Init@I2C_Add,w
  5727     0ECE  00F7               	movwf	_i2c_add
  5728     0ECF                     l3022:
  5729                           
  5730                           ;main.c: 143:     IO_Expander_Write(0x00);
  5731     0ECF  3000               	movlw	0
  5732     0ED0  120A  158A  226A  120A  158A  	fcall	_IO_Expander_Write
  5733     0ED5                     l3024:
  5734                           
  5735                           ;main.c: 144:     _delay((unsigned long)((50)*(8000000UL/4000.0)));
  5736     0ED5  3082               	movlw	130
  5737     0ED6  1283               	bcf	3,5	;RP0=0, select bank0
  5738     0ED7  1303               	bcf	3,6	;RP1=0, select bank0
  5739     0ED8  00A5               	movwf	??_LCD_Init+1
  5740     0ED9  30DD               	movlw	221
  5741     0EDA  00A4               	movwf	??_LCD_Init
  5742     0EDB                     u3887:
  5743     0EDB  0BA4               	decfsz	??_LCD_Init,f
  5744     0EDC  2EDB               	goto	u3887
  5745     0EDD  0BA5               	decfsz	??_LCD_Init+1,f
  5746     0EDE  2EDB               	goto	u3887
  5747                           
  5748                           ;main.c: 146:     LCD_CMD(0x03); _delay((unsigned long)((5)*(8000000UL/4000.0)));
  5749     0EDF  3003               	movlw	3
  5750     0EE0  120A  158A  23C0  120A  158A  	fcall	_LCD_CMD
  5751     0EE5                     l3026:
  5752     0EE5  300D               	movlw	13
  5753     0EE6  1283               	bcf	3,5	;RP0=0, select bank0
  5754     0EE7  1303               	bcf	3,6	;RP1=0, select bank0
  5755     0EE8  00A5               	movwf	??_LCD_Init+1
  5756     0EE9  30FB               	movlw	251
  5757     0EEA  00A4               	movwf	??_LCD_Init
  5758     0EEB                     u3897:
  5759     0EEB  0BA4               	decfsz	??_LCD_Init,f
  5760     0EEC  2EEB               	goto	u3897
  5761     0EED  0BA5               	decfsz	??_LCD_Init+1,f
  5762     0EEE  2EEB               	goto	u3897
  5763     0EEF                     l3028:
  5764                           
  5765                           ;main.c: 147:     LCD_CMD(0x03); _delay((unsigned long)((5)*(8000000UL/4000.0)));
  5766     0EEF  3003               	movlw	3
  5767     0EF0  120A  158A  23C0  120A  158A  	fcall	_LCD_CMD
  5768     0EF5  300D               	movlw	13
  5769     0EF6  1283               	bcf	3,5	;RP0=0, select bank0
  5770     0EF7  1303               	bcf	3,6	;RP1=0, select bank0
  5771     0EF8  00A5               	movwf	??_LCD_Init+1
  5772     0EF9  30FB               	movlw	251
  5773     0EFA  00A4               	movwf	??_LCD_Init
  5774     0EFB                     u3907:
  5775     0EFB  0BA4               	decfsz	??_LCD_Init,f
  5776     0EFC  2EFB               	goto	u3907
  5777     0EFD  0BA5               	decfsz	??_LCD_Init+1,f
  5778     0EFE  2EFB               	goto	u3907
  5779     0EFF                     l3030:
  5780                           
  5781                           ;main.c: 148:     LCD_CMD(0x03); _delay((unsigned long)((5)*(8000000UL/4000.0)));
  5782     0EFF  3003               	movlw	3
  5783     0F00  120A  158A  23C0  120A  158A  	fcall	_LCD_CMD
  5784     0F05                     l3032:
  5785     0F05  300D               	movlw	13
  5786     0F06  1283               	bcf	3,5	;RP0=0, select bank0
  5787     0F07  1303               	bcf	3,6	;RP1=0, select bank0
  5788     0F08  00A5               	movwf	??_LCD_Init+1
  5789     0F09  30FB               	movlw	251
  5790     0F0A  00A4               	movwf	??_LCD_Init
  5791     0F0B                     u3917:
  5792     0F0B  0BA4               	decfsz	??_LCD_Init,f
  5793     0F0C  2F0B               	goto	u3917
  5794     0F0D  0BA5               	decfsz	??_LCD_Init+1,f
  5795     0F0E  2F0B               	goto	u3917
  5796                           
  5797                           ;main.c: 150:     LCD_CMD(0x02); _delay((unsigned long)((5)*(8000000UL/4000.0)));
  5798     0F0F  3002               	movlw	2
  5799     0F10  120A  158A  23C0  120A  158A  	fcall	_LCD_CMD
  5800     0F15                     l3034:
  5801     0F15  300D               	movlw	13
  5802     0F16  1283               	bcf	3,5	;RP0=0, select bank0
  5803     0F17  1303               	bcf	3,6	;RP1=0, select bank0
  5804     0F18  00A5               	movwf	??_LCD_Init+1
  5805     0F19  30FB               	movlw	251
  5806     0F1A  00A4               	movwf	??_LCD_Init
  5807     0F1B                     u3927:
  5808     0F1B  0BA4               	decfsz	??_LCD_Init,f
  5809     0F1C  2F1B               	goto	u3927
  5810     0F1D  0BA5               	decfsz	??_LCD_Init+1,f
  5811     0F1E  2F1B               	goto	u3927
  5812     0F1F                     l3036:
  5813                           
  5814                           ;main.c: 151:     LCD_CMD(0x20 | (2 << 2)); _delay((unsigned long)((5)*(8000000UL/4000.0
      +                          )));
  5815     0F1F  3028               	movlw	40
  5816     0F20  120A  158A  23C0  120A  158A  	fcall	_LCD_CMD
  5817     0F25  300D               	movlw	13
  5818     0F26  1283               	bcf	3,5	;RP0=0, select bank0
  5819     0F27  1303               	bcf	3,6	;RP1=0, select bank0
  5820     0F28  00A5               	movwf	??_LCD_Init+1
  5821     0F29  30FB               	movlw	251
  5822     0F2A  00A4               	movwf	??_LCD_Init
  5823     0F2B                     u3937:
  5824     0F2B  0BA4               	decfsz	??_LCD_Init,f
  5825     0F2C  2F2B               	goto	u3937
  5826     0F2D  0BA5               	decfsz	??_LCD_Init+1,f
  5827     0F2E  2F2B               	goto	u3937
  5828     0F2F                     l3038:
  5829                           
  5830                           ;main.c: 152:     LCD_CMD(0x0C); _delay((unsigned long)((5)*(8000000UL/4000.0)));
  5831     0F2F  300C               	movlw	12
  5832     0F30  120A  158A  23C0  120A  158A  	fcall	_LCD_CMD
  5833     0F35                     l3040:
  5834     0F35  300D               	movlw	13
  5835     0F36  1283               	bcf	3,5	;RP0=0, select bank0
  5836     0F37  1303               	bcf	3,6	;RP1=0, select bank0
  5837     0F38  00A5               	movwf	??_LCD_Init+1
  5838     0F39  30FB               	movlw	251
  5839     0F3A  00A4               	movwf	??_LCD_Init
  5840     0F3B                     u3947:
  5841     0F3B  0BA4               	decfsz	??_LCD_Init,f
  5842     0F3C  2F3B               	goto	u3947
  5843     0F3D  0BA5               	decfsz	??_LCD_Init+1,f
  5844     0F3E  2F3B               	goto	u3947
  5845                           
  5846                           ;main.c: 153:     LCD_CMD(0x01); _delay((unsigned long)((5)*(8000000UL/4000.0)));
  5847     0F3F  3001               	movlw	1
  5848     0F40  120A  158A  23C0  120A  158A  	fcall	_LCD_CMD
  5849     0F45                     l3042:
  5850     0F45  300D               	movlw	13
  5851     0F46  1283               	bcf	3,5	;RP0=0, select bank0
  5852     0F47  1303               	bcf	3,6	;RP1=0, select bank0
  5853     0F48  00A5               	movwf	??_LCD_Init+1
  5854     0F49  30FB               	movlw	251
  5855     0F4A  00A4               	movwf	??_LCD_Init
  5856     0F4B                     u3957:
  5857     0F4B  0BA4               	decfsz	??_LCD_Init,f
  5858     0F4C  2F4B               	goto	u3957
  5859     0F4D  0BA5               	decfsz	??_LCD_Init+1,f
  5860     0F4E  2F4B               	goto	u3957
  5861     0F4F                     l3044:
  5862                           
  5863                           ;main.c: 154:     LCD_CMD(0x04 | 0x02); _delay((unsigned long)((5)*(8000000UL/4000.0)));
  5864     0F4F  3006               	movlw	6
  5865     0F50  120A  158A  23C0  120A  158A  	fcall	_LCD_CMD
  5866     0F55  300D               	movlw	13
  5867     0F56  1283               	bcf	3,5	;RP0=0, select bank0
  5868     0F57  1303               	bcf	3,6	;RP1=0, select bank0
  5869     0F58  00A5               	movwf	??_LCD_Init+1
  5870     0F59  30FB               	movlw	251
  5871     0F5A  00A4               	movwf	??_LCD_Init
  5872     0F5B                     u3967:
  5873     0F5B  0BA4               	decfsz	??_LCD_Init,f
  5874     0F5C  2F5B               	goto	u3967
  5875     0F5D  0BA5               	decfsz	??_LCD_Init+1,f
  5876     0F5E  2F5B               	goto	u3967
  5877     0F5F                     l210:
  5878     0F5F  0008               	return
  5879     0F60                     __end_of_LCD_Init:
  5880                           
  5881                           	psect	text26
  5882     0A36                     __ptext26:	
  5883 ;; *************** function _I2C_Init *****************
  5884 ;; Defined at:
  5885 ;;		line 66 in file "main.c"
  5886 ;; Parameters:    Size  Location     Type
  5887 ;;		None
  5888 ;; Auto vars:     Size  Location     Type
  5889 ;;		None
  5890 ;; Return value:  Size  Location     Type
  5891 ;;                  1    wreg      void 
  5892 ;; Registers used:
  5893 ;;		status,2
  5894 ;; Tracked objects:
  5895 ;;		On entry : 0/0
  5896 ;;		On exit  : 0/0
  5897 ;;		Unchanged: 0/0
  5898 ;; Data sizes:     COMMON   BANK0   BANK1   BANK3   BANK2
  5899 ;;      Params:         0       0       0       0       0
  5900 ;;      Locals:         0       0       0       0       0
  5901 ;;      Temps:          0       0       0       0       0
  5902 ;;      Totals:         0       0       0       0       0
  5903 ;;Total ram usage:        0 bytes
  5904 ;; Hardware stack levels used: 1
  5905 ;; Hardware stack levels required when called: 1
  5906 ;; This function calls:
  5907 ;;		Nothing
  5908 ;; This function is called by:
  5909 ;;		_main
  5910 ;; This function uses a non-reentrant model
  5911 ;;
  5912                           
  5913     0A36                     _I2C_Init:	
  5914                           ;psect for function _I2C_Init
  5915                           
  5916     0A36                     l3016:	
  5917                           ;incstack = 0
  5918                           ; Regs used in _I2C_Init: [status,2]
  5919                           
  5920     0A36  1683               	bsf	3,5	;RP0=1, select bank1
  5921     0A37  1303               	bcf	3,6	;RP1=0, select bank1
  5922     0A38  1587               	bsf	7,3	;volatile
  5923     0A39  1607               	bsf	7,4	;volatile
  5924     0A3A  3028               	movlw	40
  5925     0A3B  1283               	bcf	3,5	;RP0=0, select bank0
  5926     0A3C  1303               	bcf	3,6	;RP1=0, select bank0
  5927     0A3D  0094               	movwf	20	;volatile
  5928     0A3E  3080               	movlw	128
  5929     0A3F  1683               	bsf	3,5	;RP0=1, select bank1
  5930     0A40  1303               	bcf	3,6	;RP1=0, select bank1
  5931     0A41  0094               	movwf	20	;volatile
  5932     0A42  3013               	movlw	19
  5933     0A43  0093               	movwf	19	;volatile
  5934     0A44                     l3018:
  5935     0A44  0191               	clrf	17	;volatile
  5936     0A45                     l138:
  5937     0A45  0008               	return
  5938     0A46                     __end_of_I2C_Init:
  5939                           
  5940                           	psect	text27
  5941     078E                     __ptext27:	
  5942 ;; *************** function _Display_Sensor_Values *****************
  5943 ;; Defined at:
  5944 ;;		line 330 in file "main.c"
  5945 ;; Parameters:    Size  Location     Type
  5946 ;;  msg             1    6[BANK0 ] PTR const unsigned char 
  5947 ;;		 -> rx_buffer(8), 
  5948 ;; Auto vars:     Size  Location     Type
  5949 ;;  sensorB         4   12[BANK0 ] unsigned char [4]
  5950 ;;  sensorA         4    8[BANK0 ] unsigned char [4]
  5951 ;;  i               1   16[BANK0 ] unsigned char 
  5952 ;; Return value:  Size  Location     Type
  5953 ;;                  1    wreg      void 
  5954 ;; Registers used:
  5955 ;;		wreg, fsr0l, fsr0h, status,2, status,0, btemp+1, pclath, cstack
  5956 ;; Tracked objects:
  5957 ;;		On entry : 0/0
  5958 ;;		On exit  : 0/0
  5959 ;;		Unchanged: 0/0
  5960 ;; Data sizes:     COMMON   BANK0   BANK1   BANK3   BANK2
  5961 ;;      Params:         0       1       0       0       0
  5962 ;;      Locals:         0       9       0       0       0
  5963 ;;      Temps:          0       1       0       0       0
  5964 ;;      Totals:         0      11       0       0       0
  5965 ;;Total ram usage:       11 bytes
  5966 ;; Hardware stack levels used: 1
  5967 ;; Hardware stack levels required when called: 7
  5968 ;; This function calls:
  5969 ;;		_LCD_Clear
  5970 ;;		_LCD_Set_Cursor
  5971 ;;		_LCD_Write_String
  5972 ;; This function is called by:
  5973 ;;		_main
  5974 ;; This function uses a non-reentrant model
  5975 ;;
  5976                           
  5977     078E                     _Display_Sensor_Values:	
  5978                           ;psect for function _Display_Sensor_Values
  5979                           
  5980     078E                     l3222:	
  5981                           ;incstack = 0
  5982                           ; Regs used in _Display_Sensor_Values: [wreg-fsr0h+status,2+status,0+btemp+1+pclath+csta
      +                          ck]
  5983                           
  5984                           
  5985                           ;main.c: 331:     char sensorA[4] = {0};
  5986     078E  3000               	movlw	0
  5987     078F  1283               	bcf	3,5	;RP0=0, select bank0
  5988     0790  1303               	bcf	3,6	;RP1=0, select bank0
  5989     0791  00AB               	movwf	Display_Sensor_Values@sensorA+3
  5990     0792  3000               	movlw	0
  5991     0793  00AA               	movwf	Display_Sensor_Values@sensorA+2
  5992     0794  3000               	movlw	0
  5993     0795  00A9               	movwf	Display_Sensor_Values@sensorA+1
  5994     0796  3000               	movlw	0
  5995     0797  00A8               	movwf	Display_Sensor_Values@sensorA
  5996                           
  5997                           ;main.c: 332:     char sensorB[4] = {0};
  5998     0798  3000               	movlw	0
  5999     0799  00AF               	movwf	Display_Sensor_Values@sensorB+3
  6000     079A  3000               	movlw	0
  6001     079B  00AE               	movwf	Display_Sensor_Values@sensorB+2
  6002     079C  3000               	movlw	0
  6003     079D  00AD               	movwf	Display_Sensor_Values@sensorB+1
  6004     079E  3000               	movlw	0
  6005     079F  00AC               	movwf	Display_Sensor_Values@sensorB
  6006     07A0                     l3224:
  6007                           
  6008                           ;main.c: 333:     uint8_t i;;main.c: 336:     for (i = 0; i < 3; i++) {
  6009     07A0  01B0               	clrf	Display_Sensor_Values@i
  6010     07A1                     l3230:
  6011                           
  6012                           ;main.c: 337:         sensorA[i] = msg[0 + i];
  6013     07A1  0830               	movf	Display_Sensor_Values@i,w
  6014     07A2  0726               	addwf	Display_Sensor_Values@msg,w
  6015     07A3  00A7               	movwf	??_Display_Sensor_Values
  6016     07A4  0827               	movf	??_Display_Sensor_Values,w
  6017     07A5  0084               	movwf	4
  6018     07A6  1383               	bcf	3,7	;select IRP bank0
  6019     07A7  0800               	movf	0,w
  6020     07A8  00FF               	movwf	btemp+1
  6021     07A9  0830               	movf	Display_Sensor_Values@i,w
  6022     07AA  3E28               	addlw	(low (Display_Sensor_Values@sensorA| 0))& (0+255)
  6023     07AB  0084               	movwf	4
  6024     07AC  087F               	movf	btemp+1,w
  6025     07AD  0080               	movwf	0
  6026     07AE                     l3232:
  6027                           
  6028                           ;main.c: 338:     }
  6029     07AE  3001               	movlw	1
  6030     07AF  07B0               	addwf	Display_Sensor_Values@i,f
  6031     07B0                     l3234:
  6032     07B0  3003               	movlw	3
  6033     07B1  0230               	subwf	Display_Sensor_Values@i,w
  6034     07B2  1C03               	skipc
  6035     07B3  2FB5               	goto	u3581
  6036     07B4  2FB6               	goto	u3580
  6037     07B5                     u3581:
  6038     07B5  2FA1               	goto	l3230
  6039     07B6                     u3580:
  6040     07B6                     l3236:
  6041                           
  6042                           ;main.c: 339:     sensorA[3] = '\0';
  6043     07B6  01AB               	clrf	Display_Sensor_Values@sensorA+3
  6044                           
  6045                           ;main.c: 342:     for (i = 0; i < 3; i++) {
  6046     07B7  01B0               	clrf	Display_Sensor_Values@i
  6047     07B8                     l3242:
  6048                           
  6049                           ;main.c: 343:         sensorB[i] = msg[3 + i];
  6050     07B8  0830               	movf	Display_Sensor_Values@i,w
  6051     07B9  0726               	addwf	Display_Sensor_Values@msg,w
  6052     07BA  00A7               	movwf	??_Display_Sensor_Values
  6053     07BB  0827               	movf	??_Display_Sensor_Values,w
  6054     07BC  3E03               	addlw	3
  6055     07BD  0084               	movwf	4
  6056     07BE  0800               	movf	0,w
  6057     07BF  00FF               	movwf	btemp+1
  6058     07C0  0830               	movf	Display_Sensor_Values@i,w
  6059     07C1  3E2C               	addlw	(low (Display_Sensor_Values@sensorB| 0))& (0+255)
  6060     07C2  0084               	movwf	4
  6061     07C3  087F               	movf	btemp+1,w
  6062     07C4  0080               	movwf	0
  6063     07C5                     l3244:
  6064                           
  6065                           ;main.c: 344:     }
  6066     07C5  3001               	movlw	1
  6067     07C6  07B0               	addwf	Display_Sensor_Values@i,f
  6068     07C7                     l3246:
  6069     07C7  3003               	movlw	3
  6070     07C8  0230               	subwf	Display_Sensor_Values@i,w
  6071     07C9  1C03               	skipc
  6072     07CA  2FCC               	goto	u3591
  6073     07CB  2FCD               	goto	u3590
  6074     07CC                     u3591:
  6075     07CC  2FB8               	goto	l3242
  6076     07CD                     u3590:
  6077     07CD                     l3248:
  6078                           
  6079                           ;main.c: 345:     sensorB[3] = '\0';
  6080     07CD  01AF               	clrf	Display_Sensor_Values@sensorB+3
  6081     07CE                     l3250:
  6082                           
  6083                           ;main.c: 348:     LCD_Clear();
  6084     07CE  120A  158A  2246  120A  118A  	fcall	_LCD_Clear
  6085     07D3                     l3252:
  6086                           
  6087                           ;main.c: 353:     LCD_Set_Cursor(1, 1);
  6088     07D3  1283               	bcf	3,5	;RP0=0, select bank0
  6089     07D4  1303               	bcf	3,6	;RP1=0, select bank0
  6090     07D5  01A4               	clrf	LCD_Set_Cursor@COL
  6091     07D6  0AA4               	incf	LCD_Set_Cursor@COL,f
  6092     07D7  3001               	movlw	1
  6093     07D8  120A  158A  23E9  120A  118A  	fcall	_LCD_Set_Cursor
  6094     07DD                     l3254:
  6095                           
  6096                           ;main.c: 354:     LCD_Write_String("SensorB=");
  6097     07DD  3049               	movlw	(low ((STR_6-__stringbase)| (0+32768)))& (0+255)
  6098     07DE  1283               	bcf	3,5	;RP0=0, select bank0
  6099     07DF  1303               	bcf	3,6	;RP1=0, select bank0
  6100     07E0  00A3               	movwf	LCD_Write_String@Str
  6101     07E1  3080               	movlw	128
  6102     07E2  00A4               	movwf	LCD_Write_String@Str+1
  6103     07E3  120A  158A  2370  120A  118A  	fcall	_LCD_Write_String
  6104     07E8                     l3256:
  6105                           
  6106                           ;main.c: 355:     LCD_Write_String(sensorB);
  6107     07E8  302C               	movlw	(low (Display_Sensor_Values@sensorB| 0))& (0+255)
  6108     07E9  1283               	bcf	3,5	;RP0=0, select bank0
  6109     07EA  1303               	bcf	3,6	;RP1=0, select bank0
  6110     07EB  00A3               	movwf	LCD_Write_String@Str
  6111     07EC  3000               	movlw	0
  6112     07ED  00A4               	movwf	LCD_Write_String@Str+1
  6113     07EE  120A  158A  2370  120A  118A  	fcall	_LCD_Write_String
  6114     07F3                     l315:
  6115     07F3  0008               	return
  6116     07F4                     __end_of_Display_Sensor_Values:
  6117                           
  6118                           	psect	text28
  6119     0B70                     __ptext28:	
  6120 ;; *************** function _LCD_Write_String *****************
  6121 ;; Defined at:
  6122 ;;		line 121 in file "main.c"
  6123 ;; Parameters:    Size  Location     Type
  6124 ;;  Str             2    3[BANK0 ] PTR const unsigned char 
  6125 ;;		 -> STR_14(11), STR_13(11), STR_11(15), STR_9(6), 
  6126 ;;		 -> STR_7(19), STR_6(9), Display_Sensor_Values@sensorB(4), STR_5(16), 
  6127 ;;		 -> update_bpm@buffer(6), STR_2(4), 
  6128 ;; Auto vars:     Size  Location     Type
  6129 ;;		None
  6130 ;; Return value:  Size  Location     Type
  6131 ;;                  1    wreg      void 
  6132 ;; Registers used:
  6133 ;;		wreg, fsr0l, fsr0h, status,2, status,0, btemp+1, pclath, cstack
  6134 ;; Tracked objects:
  6135 ;;		On entry : 0/0
  6136 ;;		On exit  : 0/0
  6137 ;;		Unchanged: 0/0
  6138 ;; Data sizes:     COMMON   BANK0   BANK1   BANK3   BANK2
  6139 ;;      Params:         0       2       0       0       0
  6140 ;;      Locals:         0       0       0       0       0
  6141 ;;      Temps:          0       0       0       0       0
  6142 ;;      Totals:         0       2       0       0       0
  6143 ;;Total ram usage:        2 bytes
  6144 ;; Hardware stack levels used: 1
  6145 ;; Hardware stack levels required when called: 6
  6146 ;; This function calls:
  6147 ;;		_LCD_Write_Char
  6148 ;; This function is called by:
  6149 ;;		_update_bpm
  6150 ;;		_process_heart_rate
  6151 ;;		_Display_Sensor_Values
  6152 ;;		_main
  6153 ;; This function uses a non-reentrant model
  6154 ;;
  6155                           
  6156     0B70                     _LCD_Write_String:	
  6157                           ;psect for function _LCD_Write_String
  6158                           
  6159     0B70                     l2790:	
  6160                           ;incstack = 0
  6161 ;; hardware stack exceeded
  6162                           ; Regs used in _LCD_Write_String: [wreg-fsr0h+status,2+status,0+btemp+1+pclath+cstack]
  6163                           
  6164                           
  6165                           ;main.c: 122:     while (*Str) {
  6166     0B70  2B87               	goto	l2796
  6167     0B71                     l2792:
  6168                           
  6169                           ;main.c: 123:         LCD_Write_Char(*Str++);
  6170     0B71  0824               	movf	LCD_Write_String@Str+1,w
  6171     0B72  00FF               	movwf	btemp+1
  6172     0B73  0823               	movf	LCD_Write_String@Str,w
  6173     0B74  0084               	movwf	4
  6174     0B75  120A  158A  2000  120A  158A  	fcall	stringtab
  6175     0B7A  120A  158A  2323  120A  158A  	fcall	_LCD_Write_Char
  6176     0B7F                     l2794:
  6177     0B7F  3001               	movlw	1
  6178     0B80  1283               	bcf	3,5	;RP0=0, select bank0
  6179     0B81  1303               	bcf	3,6	;RP1=0, select bank0
  6180     0B82  07A3               	addwf	LCD_Write_String@Str,f
  6181     0B83  1803               	skipnc
  6182     0B84  0AA4               	incf	LCD_Write_String@Str+1,f
  6183     0B85  3000               	movlw	0
  6184     0B86  07A4               	addwf	LCD_Write_String@Str+1,f
  6185     0B87                     l2796:
  6186                           
  6187                           ;main.c: 122:     while (*Str) {
  6188     0B87  1283               	bcf	3,5	;RP0=0, select bank0
  6189     0B88  1303               	bcf	3,6	;RP1=0, select bank0
  6190     0B89  0824               	movf	LCD_Write_String@Str+1,w
  6191     0B8A  00FF               	movwf	btemp+1
  6192     0B8B  0823               	movf	LCD_Write_String@Str,w
  6193     0B8C  0084               	movwf	4
  6194     0B8D  120A  158A  2000  120A  158A  	fcall	stringtab
  6195     0B92  3A00               	xorlw	0
  6196     0B93  1D03               	skipz
  6197     0B94  2B96               	goto	u2891
  6198     0B95  2B97               	goto	u2890
  6199     0B96                     u2891:
  6200     0B96  2B71               	goto	l2792
  6201     0B97                     u2890:
  6202     0B97                     l195:
  6203     0B97  0008               	return
  6204     0B98                     __end_of_LCD_Write_String:
  6205                           
  6206                           	psect	text29
  6207     0B23                     __ptext29:	
  6208 ;; *************** function _LCD_Write_Char *****************
  6209 ;; Defined at:
  6210 ;;		line 114 in file "main.c"
  6211 ;; Parameters:    Size  Location     Type
  6212 ;;  Data            1    wreg     unsigned char 
  6213 ;; Auto vars:     Size  Location     Type
  6214 ;;  Data            1    2[BANK0 ] unsigned char 
  6215 ;; Return value:  Size  Location     Type
  6216 ;;                  1    wreg      void 
  6217 ;; Registers used:
  6218 ;;		wreg, status,2, status,0, pclath, cstack
  6219 ;; Tracked objects:
  6220 ;;		On entry : 0/0
  6221 ;;		On exit  : 0/0
  6222 ;;		Unchanged: 0/0
  6223 ;; Data sizes:     COMMON   BANK0   BANK1   BANK3   BANK2
  6224 ;;      Params:         0       0       0       0       0
  6225 ;;      Locals:         0       1       0       0       0
  6226 ;;      Temps:          0       1       0       0       0
  6227 ;;      Totals:         0       2       0       0       0
  6228 ;;Total ram usage:        2 bytes
  6229 ;; Hardware stack levels used: 1
  6230 ;; Hardware stack levels required when called: 5
  6231 ;; This function calls:
  6232 ;;		_LCD_Write_4Bit
  6233 ;; This function is called by:
  6234 ;;		_LCD_Write_String
  6235 ;;		_LCD_PrintDeciC
  6236 ;; This function uses a non-reentrant model
  6237 ;;
  6238                           
  6239     0B23                     _LCD_Write_Char:	
  6240                           ;psect for function _LCD_Write_Char
  6241                           
  6242                           
  6243                           ;incstack = 0
  6244 ;; hardware stack exceeded
  6245                           ; Regs used in _LCD_Write_Char: [wreg+status,2+status,0+pclath+cstack]
  6246                           ;LCD_Write_Char@Data stored from wreg
  6247     0B23  1283               	bcf	3,5	;RP0=0, select bank0
  6248     0B24  1303               	bcf	3,6	;RP1=0, select bank0
  6249     0B25  00A2               	movwf	LCD_Write_Char@Data
  6250     0B26                     l2746:
  6251                           
  6252                           ;main.c: 115:     RS = 1;
  6253     0B26  3001               	movlw	1
  6254     0B27  00F8               	movwf	_RS
  6255     0B28                     l2748:
  6256                           
  6257                           ;main.c: 116:     LCD_Write_4Bit(Data & 0xF0);
  6258     0B28  0822               	movf	LCD_Write_Char@Data,w
  6259     0B29  39F0               	andlw	240
  6260     0B2A  120A  158A  22BD  120A  158A  	fcall	_LCD_Write_4Bit
  6261                           
  6262                           ;main.c: 117:     LCD_Write_4Bit((Data << 4) & 0xF0);
  6263     0B2F  1283               	bcf	3,5	;RP0=0, select bank0
  6264     0B30  1303               	bcf	3,6	;RP1=0, select bank0
  6265     0B31  0822               	movf	LCD_Write_Char@Data,w
  6266     0B32  00A1               	movwf	??_LCD_Write_Char
  6267     0B33  3003               	movlw	3
  6268     0B34                     u2815:
  6269     0B34  1003               	clrc
  6270     0B35  0DA1               	rlf	??_LCD_Write_Char,f
  6271     0B36  3EFF               	addlw	-1
  6272     0B37  1D03               	skipz
  6273     0B38  2B34               	goto	u2815
  6274     0B39  1003               	clrc
  6275     0B3A  0D21               	rlf	??_LCD_Write_Char,w
  6276     0B3B  39F0               	andlw	240
  6277     0B3C  120A  158A  22BD  120A  158A  	fcall	_LCD_Write_4Bit
  6278     0B41                     l2750:
  6279                           
  6280                           ;main.c: 118:     _delay((unsigned long)((100)*(8000000UL/4000000.0)));
  6281     0B41  3041               	movlw	65
  6282     0B42  1283               	bcf	3,5	;RP0=0, select bank0
  6283     0B43  1303               	bcf	3,6	;RP1=0, select bank0
  6284     0B44  00A1               	movwf	??_LCD_Write_Char
  6285     0B45                     u3977:
  6286     0B45  0BA1               	decfsz	??_LCD_Write_Char,f
  6287     0B46  2B45               	goto	u3977
  6288     0B47  2B48               	nop2
  6289     0B48                     l189:
  6290     0B48  0008               	return
  6291     0B49                     __end_of_LCD_Write_Char:
  6292                           
  6293                           	psect	text30
  6294     0BE9                     __ptext30:	
  6295 ;; *************** function _LCD_Set_Cursor *****************
  6296 ;; Defined at:
  6297 ;;		line 127 in file "main.c"
  6298 ;; Parameters:    Size  Location     Type
  6299 ;;  ROW             1    wreg     unsigned char 
  6300 ;;  COL             1    4[BANK0 ] unsigned char 
  6301 ;; Auto vars:     Size  Location     Type
  6302 ;;  ROW             1    5[BANK0 ] unsigned char 
  6303 ;; Return value:  Size  Location     Type
  6304 ;;                  1    wreg      void 
  6305 ;; Registers used:
  6306 ;;		wreg, fsr0l, fsr0h, status,2, status,0, pclath, cstack
  6307 ;; Tracked objects:
  6308 ;;		On entry : 0/0
  6309 ;;		On exit  : 0/0
  6310 ;;		Unchanged: 0/0
  6311 ;; Data sizes:     COMMON   BANK0   BANK1   BANK3   BANK2
  6312 ;;      Params:         0       1       0       0       0
  6313 ;;      Locals:         0       1       0       0       0
  6314 ;;      Temps:          0       0       0       0       0
  6315 ;;      Totals:         0       2       0       0       0
  6316 ;;Total ram usage:        2 bytes
  6317 ;; Hardware stack levels used: 1
  6318 ;; Hardware stack levels required when called: 6
  6319 ;; This function calls:
  6320 ;;		_LCD_CMD
  6321 ;; This function is called by:
  6322 ;;		_update_bpm
  6323 ;;		_process_heart_rate
  6324 ;;		_Display_Sensor_Values
  6325 ;;		_main
  6326 ;; This function uses a non-reentrant model
  6327 ;;
  6328                           
  6329     0BE9                     _LCD_Set_Cursor:	
  6330                           ;psect for function _LCD_Set_Cursor
  6331                           
  6332                           
  6333                           ;incstack = 0
  6334 ;; hardware stack exceeded
  6335                           ; Regs used in _LCD_Set_Cursor: [wreg-fsr0h+status,2+status,0+pclath+cstack]
  6336                           ;LCD_Set_Cursor@ROW stored from wreg
  6337     0BE9  1283               	bcf	3,5	;RP0=0, select bank0
  6338     0BEA  1303               	bcf	3,6	;RP1=0, select bank0
  6339     0BEB  00A5               	movwf	LCD_Set_Cursor@ROW
  6340     0BEC                     l2798:
  6341                           
  6342                           ;main.c: 128:     switch(ROW) {
  6343     0BEC  2C0D               	goto	l2808
  6344     0BED                     l2800:
  6345     0BED  0824               	movf	LCD_Set_Cursor@COL,w
  6346     0BEE  3EBF               	addlw	191
  6347     0BEF  120A  158A  23C0  120A  158A  	fcall	_LCD_CMD
  6348     0BF4  2C18               	goto	l204
  6349     0BF5                     l2802:
  6350     0BF5  0824               	movf	LCD_Set_Cursor@COL,w
  6351     0BF6  3E93               	addlw	147
  6352     0BF7  120A  158A  23C0  120A  158A  	fcall	_LCD_CMD
  6353     0BFC  2C18               	goto	l204
  6354     0BFD                     l2804:
  6355     0BFD  0824               	movf	LCD_Set_Cursor@COL,w
  6356     0BFE  3ED3               	addlw	211
  6357     0BFF  120A  158A  23C0  120A  158A  	fcall	_LCD_CMD
  6358     0C04  2C18               	goto	l204
  6359     0C05                     l2806:
  6360     0C05  0824               	movf	LCD_Set_Cursor@COL,w
  6361     0C06  3E7F               	addlw	127
  6362     0C07  120A  158A  23C0  120A  158A  	fcall	_LCD_CMD
  6363                           
  6364                           ;main.c: 133:     }
  6365     0C0C  2C18               	goto	l204
  6366     0C0D                     l2808:
  6367     0C0D  0825               	movf	LCD_Set_Cursor@ROW,w
  6368                           
  6369                           ; Switch size 1, requested type "simple"
  6370                           ; Number of cases is 3, Range of values is 2 to 4
  6371                           ; switch strategies available:
  6372                           ; Name         Instructions Cycles
  6373                           ; simple_byte           10     6 (average)
  6374                           ; direct_byte           20    11 (fixed)
  6375                           ; jumptable            263     9 (fixed)
  6376                           ;	Chosen strategy is simple_byte
  6377     0C0E  3A02               	xorlw	2	; case 2
  6378     0C0F  1903               	skipnz
  6379     0C10  2BED               	goto	l2800
  6380     0C11  3A01               	xorlw	1	; case 3
  6381     0C12  1903               	skipnz
  6382     0C13  2BF5               	goto	l2802
  6383     0C14  3A07               	xorlw	7	; case 4
  6384     0C15  1903               	skipnz
  6385     0C16  2BFD               	goto	l2804
  6386     0C17  2C05               	goto	l2806
  6387     0C18                     l204:
  6388     0C18  0008               	return
  6389     0C19                     __end_of_LCD_Set_Cursor:
  6390                           
  6391                           	psect	text31
  6392     0A46                     __ptext31:	
  6393 ;; *************** function _LCD_Clear *****************
  6394 ;; Defined at:
  6395 ;;		line 136 in file "main.c"
  6396 ;; Parameters:    Size  Location     Type
  6397 ;;		None
  6398 ;; Auto vars:     Size  Location     Type
  6399 ;;		None
  6400 ;; Return value:  Size  Location     Type
  6401 ;;                  1    wreg      void 
  6402 ;; Registers used:
  6403 ;;		wreg, status,2, status,0, pclath, cstack
  6404 ;; Tracked objects:
  6405 ;;		On entry : 0/0
  6406 ;;		On exit  : 0/0
  6407 ;;		Unchanged: 0/0
  6408 ;; Data sizes:     COMMON   BANK0   BANK1   BANK3   BANK2
  6409 ;;      Params:         0       0       0       0       0
  6410 ;;      Locals:         0       0       0       0       0
  6411 ;;      Temps:          0       2       0       0       0
  6412 ;;      Totals:         0       2       0       0       0
  6413 ;;Total ram usage:        2 bytes
  6414 ;; Hardware stack levels used: 1
  6415 ;; Hardware stack levels required when called: 6
  6416 ;; This function calls:
  6417 ;;		_LCD_CMD
  6418 ;; This function is called by:
  6419 ;;		_Display_Sensor_Values
  6420 ;;		_main
  6421 ;; This function uses a non-reentrant model
  6422 ;;
  6423                           
  6424     0A46                     _LCD_Clear:	
  6425                           ;psect for function _LCD_Clear
  6426                           
  6427     0A46                     l2824:	
  6428                           ;incstack = 0
  6429                           ; Regs used in _LCD_Clear: [wreg+status,2+status,0+pclath+cstack]
  6430                           
  6431                           
  6432                           ;main.c: 137:     LCD_CMD(0x01);
  6433     0A46  3001               	movlw	1
  6434     0A47  120A  158A  23C0  120A  158A  	fcall	_LCD_CMD
  6435     0A4C                     l2826:
  6436                           
  6437                           ;main.c: 138:     _delay((unsigned long)((2)*(8000000UL/4000.0)));
  6438     0A4C  3006               	movlw	6
  6439     0A4D  1283               	bcf	3,5	;RP0=0, select bank0
  6440     0A4E  1303               	bcf	3,6	;RP1=0, select bank0
  6441     0A4F  00A5               	movwf	??_LCD_Clear+1
  6442     0A50  302F               	movlw	47
  6443     0A51  00A4               	movwf	??_LCD_Clear
  6444     0A52                     u3987:
  6445     0A52  0BA4               	decfsz	??_LCD_Clear,f
  6446     0A53  2A52               	goto	u3987
  6447     0A54  0BA5               	decfsz	??_LCD_Clear+1,f
  6448     0A55  2A52               	goto	u3987
  6449     0A56  2A57               	nop2
  6450     0A57                     l207:
  6451     0A57  0008               	return
  6452     0A58                     __end_of_LCD_Clear:
  6453                           
  6454                           	psect	text32
  6455     0BC0                     __ptext32:	
  6456 ;; *************** function _LCD_CMD *****************
  6457 ;; Defined at:
  6458 ;;		line 107 in file "main.c"
  6459 ;; Parameters:    Size  Location     Type
  6460 ;;  CMD             1    wreg     unsigned char 
  6461 ;; Auto vars:     Size  Location     Type
  6462 ;;  CMD             1    3[BANK0 ] unsigned char 
  6463 ;; Return value:  Size  Location     Type
  6464 ;;                  1    wreg      void 
  6465 ;; Registers used:
  6466 ;;		wreg, status,2, status,0, pclath, cstack
  6467 ;; Tracked objects:
  6468 ;;		On entry : 0/0
  6469 ;;		On exit  : 0/0
  6470 ;;		Unchanged: 0/0
  6471 ;; Data sizes:     COMMON   BANK0   BANK1   BANK3   BANK2
  6472 ;;      Params:         0       0       0       0       0
  6473 ;;      Locals:         0       1       0       0       0
  6474 ;;      Temps:          0       2       0       0       0
  6475 ;;      Totals:         0       3       0       0       0
  6476 ;;Total ram usage:        3 bytes
  6477 ;; Hardware stack levels used: 1
  6478 ;; Hardware stack levels required when called: 5
  6479 ;; This function calls:
  6480 ;;		_LCD_Write_4Bit
  6481 ;; This function is called by:
  6482 ;;		_LCD_Set_Cursor
  6483 ;;		_LCD_Clear
  6484 ;;		_LCD_Init
  6485 ;; This function uses a non-reentrant model
  6486 ;;
  6487                           
  6488     0BC0                     _LCD_CMD:	
  6489                           ;psect for function _LCD_CMD
  6490                           
  6491                           
  6492                           ;incstack = 0
  6493 ;; hardware stack exceeded
  6494                           ; Regs used in _LCD_CMD: [wreg+status,2+status,0+pclath+cstack]
  6495                           ;LCD_CMD@CMD stored from wreg
  6496     0BC0  1283               	bcf	3,5	;RP0=0, select bank0
  6497     0BC1  1303               	bcf	3,6	;RP1=0, select bank0
  6498     0BC2  00A3               	movwf	LCD_CMD@CMD
  6499     0BC3                     l2738:
  6500                           
  6501                           ;main.c: 108:     RS = 0;
  6502     0BC3  01F8               	clrf	_RS
  6503     0BC4                     l2740:
  6504                           
  6505                           ;main.c: 109:     LCD_Write_4Bit(CMD & 0xF0);
  6506     0BC4  0823               	movf	LCD_CMD@CMD,w
  6507     0BC5  39F0               	andlw	240
  6508     0BC6  120A  158A  22BD  120A  158A  	fcall	_LCD_Write_4Bit
  6509     0BCB                     l2742:
  6510                           
  6511                           ;main.c: 110:     LCD_Write_4Bit((CMD << 4) & 0xF0);
  6512     0BCB  1283               	bcf	3,5	;RP0=0, select bank0
  6513     0BCC  1303               	bcf	3,6	;RP1=0, select bank0
  6514     0BCD  0823               	movf	LCD_CMD@CMD,w
  6515     0BCE  00A1               	movwf	??_LCD_CMD
  6516     0BCF  3003               	movlw	3
  6517     0BD0                     u2805:
  6518     0BD0  1003               	clrc
  6519     0BD1  0DA1               	rlf	??_LCD_CMD,f
  6520     0BD2  3EFF               	addlw	-1
  6521     0BD3  1D03               	skipz
  6522     0BD4  2BD0               	goto	u2805
  6523     0BD5  1003               	clrc
  6524     0BD6  0D21               	rlf	??_LCD_CMD,w
  6525     0BD7  39F0               	andlw	240
  6526     0BD8  120A  158A  22BD  120A  158A  	fcall	_LCD_Write_4Bit
  6527     0BDD                     l2744:
  6528                           
  6529                           ;main.c: 111:     _delay((unsigned long)((2)*(8000000UL/4000.0)));
  6530     0BDD  3006               	movlw	6
  6531     0BDE  1283               	bcf	3,5	;RP0=0, select bank0
  6532     0BDF  1303               	bcf	3,6	;RP1=0, select bank0
  6533     0BE0  00A2               	movwf	??_LCD_CMD+1
  6534     0BE1  302F               	movlw	47
  6535     0BE2  00A1               	movwf	??_LCD_CMD
  6536     0BE3                     u3997:
  6537     0BE3  0BA1               	decfsz	??_LCD_CMD,f
  6538     0BE4  2BE3               	goto	u3997
  6539     0BE5  0BA2               	decfsz	??_LCD_CMD+1,f
  6540     0BE6  2BE3               	goto	u3997
  6541     0BE7  2BE8               	nop2
  6542     0BE8                     l186:
  6543     0BE8  0008               	return
  6544     0BE9                     __end_of_LCD_CMD:
  6545                           
  6546                           	psect	text33
  6547     0ABD                     __ptext33:	
  6548 ;; *************** function _LCD_Write_4Bit *****************
  6549 ;; Defined at:
  6550 ;;		line 99 in file "main.c"
  6551 ;; Parameters:    Size  Location     Type
  6552 ;;  Nibble          1    wreg     unsigned char 
  6553 ;; Auto vars:     Size  Location     Type
  6554 ;;  Nibble          1    0[BANK0 ] unsigned char 
  6555 ;; Return value:  Size  Location     Type
  6556 ;;                  1    wreg      void 
  6557 ;; Registers used:
  6558 ;;		wreg, status,2, status,0, pclath, cstack
  6559 ;; Tracked objects:
  6560 ;;		On entry : 0/0
  6561 ;;		On exit  : 0/0
  6562 ;;		Unchanged: 0/0
  6563 ;; Data sizes:     COMMON   BANK0   BANK1   BANK3   BANK2
  6564 ;;      Params:         0       0       0       0       0
  6565 ;;      Locals:         0       1       0       0       0
  6566 ;;      Temps:          1       0       0       0       0
  6567 ;;      Totals:         1       1       0       0       0
  6568 ;;Total ram usage:        2 bytes
  6569 ;; Hardware stack levels used: 1
  6570 ;; Hardware stack levels required when called: 4
  6571 ;; This function calls:
  6572 ;;		_IO_Expander_Write
  6573 ;; This function is called by:
  6574 ;;		_LCD_CMD
  6575 ;;		_LCD_Write_Char
  6576 ;; This function uses a non-reentrant model
  6577 ;;
  6578                           
  6579     0ABD                     _LCD_Write_4Bit:	
  6580                           ;psect for function _LCD_Write_4Bit
  6581                           
  6582                           
  6583                           ;incstack = 0
  6584 ;; hardware stack exceeded
  6585                           ; Regs used in _LCD_Write_4Bit: [wreg+status,2+status,0+pclath+cstack]
  6586                           ;LCD_Write_4Bit@Nibble stored from wreg
  6587     0ABD  1283               	bcf	3,5	;RP0=0, select bank0
  6588     0ABE  1303               	bcf	3,6	;RP1=0, select bank0
  6589     0ABF  00A0               	movwf	LCD_Write_4Bit@Nibble
  6590     0AC0                     l2682:
  6591                           
  6592                           ;main.c: 100:     Nibble |= RS;
  6593     0AC0  0878               	movf	_RS,w
  6594     0AC1  04A0               	iorwf	LCD_Write_4Bit@Nibble,f
  6595     0AC2                     l2684:
  6596                           
  6597                           ;main.c: 101:     IO_Expander_Write(Nibble | 0x04);
  6598     0AC2  0820               	movf	LCD_Write_4Bit@Nibble,w
  6599     0AC3  3804               	iorlw	4
  6600     0AC4  120A  158A  226A  120A  158A  	fcall	_IO_Expander_Write
  6601     0AC9                     l2686:
  6602                           
  6603                           ;main.c: 102:     _delay((unsigned long)((100)*(8000000UL/4000000.0)));
  6604     0AC9  3042               	movlw	66
  6605     0ACA  00F6               	movwf	??_LCD_Write_4Bit
  6606     0ACB                     u4007:
  6607     0ACB  0BF6               	decfsz	??_LCD_Write_4Bit,f
  6608     0ACC  2ACB               	goto	u4007
  6609     0ACD  0000               	nop
  6610                           
  6611                           ;main.c: 103:     IO_Expander_Write(Nibble & 0xFB);
  6612     0ACE  1283               	bcf	3,5	;RP0=0, select bank0
  6613     0ACF  1303               	bcf	3,6	;RP1=0, select bank0
  6614     0AD0  0820               	movf	LCD_Write_4Bit@Nibble,w
  6615     0AD1  39FB               	andlw	251
  6616     0AD2  120A  158A  226A  120A  158A  	fcall	_IO_Expander_Write
  6617     0AD7                     l2688:
  6618                           
  6619                           ;main.c: 104:     _delay((unsigned long)((100)*(8000000UL/4000000.0)));
  6620     0AD7  3042               	movlw	66
  6621     0AD8  00F6               	movwf	??_LCD_Write_4Bit
  6622     0AD9                     u4017:
  6623     0AD9  0BF6               	decfsz	??_LCD_Write_4Bit,f
  6624     0ADA  2AD9               	goto	u4017
  6625     0ADB  0000               	nop
  6626     0ADC                     l183:
  6627     0ADC  0008               	return
  6628     0ADD                     __end_of_LCD_Write_4Bit:
  6629                           
  6630                           	psect	text34
  6631     0A6A                     __ptext34:	
  6632 ;; *************** function _IO_Expander_Write *****************
  6633 ;; Defined at:
  6634 ;;		line 92 in file "main.c"
  6635 ;; Parameters:    Size  Location     Type
  6636 ;;  Data            1    wreg     unsigned char 
  6637 ;; Auto vars:     Size  Location     Type
  6638 ;;  Data            1    5[COMMON] unsigned char 
  6639 ;; Return value:  Size  Location     Type
  6640 ;;                  1    wreg      void 
  6641 ;; Registers used:
  6642 ;;		wreg, status,2, status,0, pclath, cstack
  6643 ;; Tracked objects:
  6644 ;;		On entry : 0/0
  6645 ;;		On exit  : 0/0
  6646 ;;		Unchanged: 0/0
  6647 ;; Data sizes:     COMMON   BANK0   BANK1   BANK3   BANK2
  6648 ;;      Params:         0       0       0       0       0
  6649 ;;      Locals:         1       0       0       0       0
  6650 ;;      Temps:          0       0       0       0       0
  6651 ;;      Totals:         1       0       0       0       0
  6652 ;;Total ram usage:        1 bytes
  6653 ;; Hardware stack levels used: 1
  6654 ;; Hardware stack levels required when called: 3
  6655 ;; This function calls:
  6656 ;;		_I2C_Start
  6657 ;;		_I2C_Stop
  6658 ;;		_I2C_Write
  6659 ;; This function is called by:
  6660 ;;		_LCD_Write_4Bit
  6661 ;;		_LCD_Init
  6662 ;; This function uses a non-reentrant model
  6663 ;;
  6664                           
  6665     0A6A                     _IO_Expander_Write:	
  6666                           ;psect for function _IO_Expander_Write
  6667                           
  6668                           
  6669                           ;incstack = 0
  6670 ;; hardware stack exceeded
  6671                           ; Regs used in _IO_Expander_Write: [wreg+status,2+status,0+pclath+cstack]
  6672                           ;IO_Expander_Write@Data stored from wreg
  6673     0A6A  00F5               	movwf	IO_Expander_Write@Data
  6674     0A6B                     l2618:
  6675                           
  6676                           ;main.c: 93:     I2C_Start();
  6677     0A6B  120A  158A  21F0  120A  158A  	fcall	_I2C_Start
  6678                           
  6679                           ;main.c: 94:     I2C_Write(i2c_add);
  6680     0A70  0877               	movf	_i2c_add,w
  6681     0A71  120A  158A  2226  120A  158A  	fcall	_I2C_Write
  6682                           
  6683                           ;main.c: 95:     I2C_Write(Data | BackLight_State);
  6684     0A76  0875               	movf	IO_Expander_Write@Data,w
  6685     0A77  3808               	iorlw	8
  6686     0A78  120A  158A  2226  120A  158A  	fcall	_I2C_Write
  6687                           
  6688                           ;main.c: 96:     I2C_Stop();
  6689     0A7D  120A  158A  21FD  120A  158A  	fcall	_I2C_Stop
  6690     0A82                     l180:
  6691     0A82  0008               	return
  6692     0A83                     __end_of_IO_Expander_Write:
  6693                           
  6694                           	psect	text35
  6695     0A26                     __ptext35:	
  6696 ;; *************** function _I2C_Write *****************
  6697 ;; Defined at:
  6698 ;;		line 76 in file "main.c"
  6699 ;; Parameters:    Size  Location     Type
  6700 ;;  d               1    wreg     unsigned char 
  6701 ;; Auto vars:     Size  Location     Type
  6702 ;;  d               1    4[COMMON] unsigned char 
  6703 ;; Return value:  Size  Location     Type
  6704 ;;                  1    wreg      void 
  6705 ;; Registers used:
  6706 ;;		wreg, status,2, status,0, pclath, cstack
  6707 ;; Tracked objects:
  6708 ;;		On entry : 0/0
  6709 ;;		On exit  : 0/0
  6710 ;;		Unchanged: 0/0
  6711 ;; Data sizes:     COMMON   BANK0   BANK1   BANK3   BANK2
  6712 ;;      Params:         0       0       0       0       0
  6713 ;;      Locals:         1       0       0       0       0
  6714 ;;      Temps:          0       0       0       0       0
  6715 ;;      Totals:         1       0       0       0       0
  6716 ;;Total ram usage:        1 bytes
  6717 ;; Hardware stack levels used: 1
  6718 ;; Hardware stack levels required when called: 2
  6719 ;; This function calls:
  6720 ;;		_I2C_WaitIdle
  6721 ;; This function is called by:
  6722 ;;		_IO_Expander_Write
  6723 ;;		_MAX_Write
  6724 ;;		_MAX_Read
  6725 ;;		_MAX30102_ReadFIFO
  6726 ;; This function uses a non-reentrant model
  6727 ;;
  6728                           
  6729     0A26                     _I2C_Write:	
  6730                           ;psect for function _I2C_Write
  6731                           
  6732                           
  6733                           ;incstack = 0
  6734 ;; hardware stack exceeded
  6735                           ; Regs used in _I2C_Write: [wreg+status,2+status,0+pclath+cstack]
  6736                           ;I2C_Write@d stored from wreg
  6737     0A26  00F4               	movwf	I2C_Write@d
  6738     0A27                     l2614:
  6739     0A27  120A  158A  21E3  120A  158A  	fcall	_I2C_WaitIdle
  6740     0A2C                     l2616:
  6741     0A2C  0874               	movf	I2C_Write@d,w
  6742     0A2D  1283               	bcf	3,5	;RP0=0, select bank0
  6743     0A2E  1303               	bcf	3,6	;RP1=0, select bank0
  6744     0A2F  0093               	movwf	19	;volatile
  6745     0A30                     l159:
  6746     0A30  1D8C               	btfss	12,3	;volatile
  6747     0A31  2A33               	goto	u2551
  6748     0A32  2A34               	goto	u2550
  6749     0A33                     u2551:
  6750     0A33  2A30               	goto	l159
  6751     0A34                     u2550:
  6752     0A34                     l161:
  6753     0A34  118C               	bcf	12,3	;volatile
  6754     0A35                     l162:
  6755     0A35  0008               	return
  6756     0A36                     __end_of_I2C_Write:
  6757                           
  6758                           	psect	text36
  6759     09FD                     __ptext36:	
  6760 ;; *************** function _I2C_Stop *****************
  6761 ;; Defined at:
  6762 ;;		line 75 in file "main.c"
  6763 ;; Parameters:    Size  Location     Type
  6764 ;;		None
  6765 ;; Auto vars:     Size  Location     Type
  6766 ;;		None
  6767 ;; Return value:  Size  Location     Type
  6768 ;;                  1    wreg      void 
  6769 ;; Registers used:
  6770 ;;		wreg, status,2, status,0, pclath, cstack
  6771 ;; Tracked objects:
  6772 ;;		On entry : 0/0
  6773 ;;		On exit  : 0/0
  6774 ;;		Unchanged: 0/0
  6775 ;; Data sizes:     COMMON   BANK0   BANK1   BANK3   BANK2
  6776 ;;      Params:         0       0       0       0       0
  6777 ;;      Locals:         0       0       0       0       0
  6778 ;;      Temps:          0       0       0       0       0
  6779 ;;      Totals:         0       0       0       0       0
  6780 ;;Total ram usage:        0 bytes
  6781 ;; Hardware stack levels used: 1
  6782 ;; Hardware stack levels required when called: 2
  6783 ;; This function calls:
  6784 ;;		_I2C_WaitIdle
  6785 ;; This function is called by:
  6786 ;;		_IO_Expander_Write
  6787 ;;		_MAX_Write
  6788 ;;		_MAX_Read
  6789 ;;		_MAX30102_ReadFIFO
  6790 ;; This function uses a non-reentrant model
  6791 ;;
  6792                           
  6793     09FD                     _I2C_Stop:	
  6794                           ;psect for function _I2C_Stop
  6795                           
  6796     09FD                     l2610:	
  6797                           ;incstack = 0
  6798 ;; hardware stack exceeded
  6799                           ; Regs used in _I2C_Stop: [wreg+status,2+status,0+pclath+cstack]
  6800                           
  6801     09FD  120A  158A  21E3  120A  158A  	fcall	_I2C_WaitIdle
  6802     0A02                     l2612:
  6803     0A02  1683               	bsf	3,5	;RP0=1, select bank1
  6804     0A03  1303               	bcf	3,6	;RP1=0, select bank1
  6805     0A04  1511               	bsf	17,2	;volatile
  6806     0A05                     l153:
  6807     0A05  1911               	btfsc	17,2	;volatile
  6808     0A06  2A08               	goto	u2541
  6809     0A07  2A09               	goto	u2540
  6810     0A08                     u2541:
  6811     0A08  2A05               	goto	l153
  6812     0A09                     u2540:
  6813     0A09                     l156:
  6814     0A09  0008               	return
  6815     0A0A                     __end_of_I2C_Stop:
  6816                           
  6817                           	psect	text37
  6818     09F0                     __ptext37:	
  6819 ;; *************** function _I2C_Start *****************
  6820 ;; Defined at:
  6821 ;;		line 73 in file "main.c"
  6822 ;; Parameters:    Size  Location     Type
  6823 ;;		None
  6824 ;; Auto vars:     Size  Location     Type
  6825 ;;		None
  6826 ;; Return value:  Size  Location     Type
  6827 ;;                  1    wreg      void 
  6828 ;; Registers used:
  6829 ;;		wreg, status,2, status,0, pclath, cstack
  6830 ;; Tracked objects:
  6831 ;;		On entry : 0/0
  6832 ;;		On exit  : 0/0
  6833 ;;		Unchanged: 0/0
  6834 ;; Data sizes:     COMMON   BANK0   BANK1   BANK3   BANK2
  6835 ;;      Params:         0       0       0       0       0
  6836 ;;      Locals:         0       0       0       0       0
  6837 ;;      Temps:          0       0       0       0       0
  6838 ;;      Totals:         0       0       0       0       0
  6839 ;;Total ram usage:        0 bytes
  6840 ;; Hardware stack levels used: 1
  6841 ;; Hardware stack levels required when called: 2
  6842 ;; This function calls:
  6843 ;;		_I2C_WaitIdle
  6844 ;; This function is called by:
  6845 ;;		_IO_Expander_Write
  6846 ;;		_MAX_Write
  6847 ;;		_MAX_Read
  6848 ;;		_MAX30102_ReadFIFO
  6849 ;; This function uses a non-reentrant model
  6850 ;;
  6851                           
  6852     09F0                     _I2C_Start:	
  6853                           ;psect for function _I2C_Start
  6854                           
  6855     09F0                     l2606:	
  6856                           ;incstack = 0
  6857 ;; hardware stack exceeded
  6858                           ; Regs used in _I2C_Start: [wreg+status,2+status,0+pclath+cstack]
  6859                           
  6860     09F0  120A  158A  21E3  120A  158A  	fcall	_I2C_WaitIdle
  6861     09F5                     l2608:
  6862     09F5  1683               	bsf	3,5	;RP0=1, select bank1
  6863     09F6  1303               	bcf	3,6	;RP1=0, select bank1
  6864     09F7  1411               	bsf	17,0	;volatile
  6865     09F8                     l141:
  6866     09F8  1811               	btfsc	17,0	;volatile
  6867     09F9  29FB               	goto	u2531
  6868     09FA  29FC               	goto	u2530
  6869     09FB                     u2531:
  6870     09FB  29F8               	goto	l141
  6871     09FC                     u2530:
  6872     09FC                     l144:
  6873     09FC  0008               	return
  6874     09FD                     __end_of_I2C_Start:
  6875                           
  6876                           	psect	text38
  6877     09E3                     __ptext38:	
  6878 ;; *************** function _I2C_WaitIdle *****************
  6879 ;; Defined at:
  6880 ;;		line 63 in file "main.c"
  6881 ;; Parameters:    Size  Location     Type
  6882 ;;		None
  6883 ;; Auto vars:     Size  Location     Type
  6884 ;;		None
  6885 ;; Return value:  Size  Location     Type
  6886 ;;                  1    wreg      void 
  6887 ;; Registers used:
  6888 ;;		wreg, status,2
  6889 ;; Tracked objects:
  6890 ;;		On entry : 0/0
  6891 ;;		On exit  : 0/0
  6892 ;;		Unchanged: 0/0
  6893 ;; Data sizes:     COMMON   BANK0   BANK1   BANK3   BANK2
  6894 ;;      Params:         0       0       0       0       0
  6895 ;;      Locals:         0       0       0       0       0
  6896 ;;      Temps:          0       0       0       0       0
  6897 ;;      Totals:         0       0       0       0       0
  6898 ;;Total ram usage:        0 bytes
  6899 ;; Hardware stack levels used: 1
  6900 ;; Hardware stack levels required when called: 1
  6901 ;; This function calls:
  6902 ;;		Nothing
  6903 ;; This function is called by:
  6904 ;;		_I2C_Start
  6905 ;;		_I2C_Restart
  6906 ;;		_I2C_Stop
  6907 ;;		_I2C_Write
  6908 ;;		_I2C_Read
  6909 ;; This function uses a non-reentrant model
  6910 ;;
  6911                           
  6912     09E3                     _I2C_WaitIdle:	
  6913                           ;psect for function _I2C_WaitIdle
  6914                           
  6915     09E3                     l2600:	
  6916                           ;incstack = 0
  6917 ;; hardware stack exceeded
  6918                           ; Regs used in _I2C_WaitIdle: [wreg+status,2]
  6919                           
  6920     09E3                     l2602:
  6921     09E3  1683               	bsf	3,5	;RP0=1, select bank1
  6922     09E4  1303               	bcf	3,6	;RP1=0, select bank1
  6923     09E5  0811               	movf	17,w	;volatile
  6924     09E6  391F               	andlw	31
  6925     09E7  1D03               	btfss	3,2
  6926     09E8  29EA               	goto	u2511
  6927     09E9  29EB               	goto	u2510
  6928     09EA                     u2511:
  6929     09EA  29E3               	goto	l2602
  6930     09EB                     u2510:
  6931     09EB                     l2604:
  6932     09EB  1914               	btfsc	20,2	;volatile
  6933     09EC  29EE               	goto	u2521
  6934     09ED  29EF               	goto	u2520
  6935     09EE                     u2521:
  6936     09EE  29E3               	goto	l2602
  6937     09EF                     u2520:
  6938     09EF                     l135:
  6939     09EF  0008               	return
  6940     09F0                     __end_of_I2C_WaitIdle:
  6941                           
  6942                           	psect	text39
  6943     0CC4                     __ptext39:	
  6944 ;; *************** function _ADC_Read *****************
  6945 ;; Defined at:
  6946 ;;		line 180 in file "main.c"
  6947 ;; Parameters:    Size  Location     Type
  6948 ;;  ch3             1    wreg     unsigned char 
  6949 ;;  ch2             1    4[COMMON] unsigned char 
  6950 ;;  ch1             1    5[COMMON] unsigned char 
  6951 ;;  ch0             1    6[COMMON] unsigned char 
  6952 ;; Auto vars:     Size  Location     Type
  6953 ;;  ch3             1    1[BANK0 ] unsigned char 
  6954 ;; Return value:  Size  Location     Type
  6955 ;;                  2    4[COMMON] unsigned short 
  6956 ;; Registers used:
  6957 ;;		wreg
  6958 ;; Tracked objects:
  6959 ;;		On entry : 0/0
  6960 ;;		On exit  : 0/0
  6961 ;;		Unchanged: 0/0
  6962 ;; Data sizes:     COMMON   BANK0   BANK1   BANK3   BANK2
  6963 ;;      Params:         3       0       0       0       0
  6964 ;;      Locals:         0       1       0       0       0
  6965 ;;      Temps:          0       1       0       0       0
  6966 ;;      Totals:         3       2       0       0       0
  6967 ;;Total ram usage:        5 bytes
  6968 ;; Hardware stack levels used: 1
  6969 ;; Hardware stack levels required when called: 1
  6970 ;; This function calls:
  6971 ;;		Nothing
  6972 ;; This function is called by:
  6973 ;;		_main
  6974 ;; This function uses a non-reentrant model
  6975 ;;
  6976                           
  6977     0CC4                     _ADC_Read:	
  6978                           ;psect for function _ADC_Read
  6979                           
  6980                           
  6981                           ;incstack = 0
  6982                           ; Regs used in _ADC_Read: [wreg]
  6983                           ;ADC_Read@ch3 stored from wreg
  6984     0CC4  1283               	bcf	3,5	;RP0=0, select bank0
  6985     0CC5  1303               	bcf	3,6	;RP1=0, select bank0
  6986     0CC6  00A1               	movwf	ADC_Read@ch3
  6987     0CC7                     l3088:
  6988                           
  6989                           ;main.c: 181:     CHS3=ch3; CHS2=ch2; CHS1=ch1; CHS0=ch0;
  6990     0CC7  1821               	btfsc	ADC_Read@ch3,0
  6991     0CC8  2CCA               	goto	u3291
  6992     0CC9  2CCE               	goto	u3290
  6993     0CCA                     u3291:
  6994     0CCA  1283               	bcf	3,5	;RP0=0, select bank0
  6995     0CCB  1303               	bcf	3,6	;RP1=0, select bank0
  6996     0CCC  169F               	bsf	31,5	;volatile
  6997     0CCD  2CD1               	goto	u3304
  6998     0CCE                     u3290:
  6999     0CCE  1283               	bcf	3,5	;RP0=0, select bank0
  7000     0CCF  1303               	bcf	3,6	;RP1=0, select bank0
  7001     0CD0  129F               	bcf	31,5	;volatile
  7002     0CD1                     u3304:
  7003     0CD1  1874               	btfsc	ADC_Read@ch2,0
  7004     0CD2  2CD4               	goto	u3311
  7005     0CD3  2CD8               	goto	u3310
  7006     0CD4                     u3311:
  7007     0CD4  1283               	bcf	3,5	;RP0=0, select bank0
  7008     0CD5  1303               	bcf	3,6	;RP1=0, select bank0
  7009     0CD6  161F               	bsf	31,4	;volatile
  7010     0CD7  2CDB               	goto	u3324
  7011     0CD8                     u3310:
  7012     0CD8  1283               	bcf	3,5	;RP0=0, select bank0
  7013     0CD9  1303               	bcf	3,6	;RP1=0, select bank0
  7014     0CDA  121F               	bcf	31,4	;volatile
  7015     0CDB                     u3324:
  7016     0CDB  1875               	btfsc	ADC_Read@ch1,0
  7017     0CDC  2CDE               	goto	u3331
  7018     0CDD  2CE2               	goto	u3330
  7019     0CDE                     u3331:
  7020     0CDE  1283               	bcf	3,5	;RP0=0, select bank0
  7021     0CDF  1303               	bcf	3,6	;RP1=0, select bank0
  7022     0CE0  159F               	bsf	31,3	;volatile
  7023     0CE1  2CE5               	goto	u3344
  7024     0CE2                     u3330:
  7025     0CE2  1283               	bcf	3,5	;RP0=0, select bank0
  7026     0CE3  1303               	bcf	3,6	;RP1=0, select bank0
  7027     0CE4  119F               	bcf	31,3	;volatile
  7028     0CE5                     u3344:
  7029     0CE5  1876               	btfsc	ADC_Read@ch0,0
  7030     0CE6  2CE8               	goto	u3351
  7031     0CE7  2CEC               	goto	u3350
  7032     0CE8                     u3351:
  7033     0CE8  1283               	bcf	3,5	;RP0=0, select bank0
  7034     0CE9  1303               	bcf	3,6	;RP1=0, select bank0
  7035     0CEA  151F               	bsf	31,2	;volatile
  7036     0CEB  2CEF               	goto	u3364
  7037     0CEC                     u3350:
  7038     0CEC  1283               	bcf	3,5	;RP0=0, select bank0
  7039     0CED  1303               	bcf	3,6	;RP1=0, select bank0
  7040     0CEE  111F               	bcf	31,2	;volatile
  7041     0CEF                     u3364:
  7042     0CEF                     l3090:
  7043                           
  7044                           ;main.c: 182:     _delay((unsigned long)((25)*(8000000UL/4000000.0)));
  7045     0CEF  300F               	movlw	15
  7046     0CF0  1283               	bcf	3,5	;RP0=0, select bank0
  7047     0CF1  1303               	bcf	3,6	;RP1=0, select bank0
  7048     0CF2  00A0               	movwf	??_ADC_Read
  7049     0CF3                     u4027:
  7050     0CF3  0BA0               	decfsz	??_ADC_Read,f
  7051     0CF4  2CF3               	goto	u4027
  7052     0CF5  2CF6               	nop2
  7053     0CF6                     l3092:
  7054                           
  7055                           ;main.c: 183:     GO_nDONE = 1;
  7056     0CF6  1283               	bcf	3,5	;RP0=0, select bank0
  7057     0CF7  1303               	bcf	3,6	;RP1=0, select bank0
  7058     0CF8  149F               	bsf	31,1	;volatile
  7059     0CF9                     l235:	
  7060                           ;main.c: 184:     while(GO_nDONE);
  7061                           
  7062     0CF9  189F               	btfsc	31,1	;volatile
  7063     0CFA  2CFC               	goto	u3371
  7064     0CFB  2CFD               	goto	u3370
  7065     0CFC                     u3371:
  7066     0CFC  2CF9               	goto	l235
  7067     0CFD                     u3370:
  7068     0CFD                     l3094:
  7069                           
  7070                           ;main.c: 185:     return (uint16_t)(((uint16_t)ADRESH << 8) | ADRESL);
  7071     0CFD  081E               	movf	30,w	;volatile
  7072     0CFE  00F5               	movwf	?_ADC_Read+1
  7073     0CFF  1683               	bsf	3,5	;RP0=1, select bank1
  7074     0D00  1303               	bcf	3,6	;RP1=0, select bank1
  7075     0D01  081E               	movf	30,w	;volatile
  7076     0D02  00F4               	movwf	?_ADC_Read
  7077     0D03                     l238:
  7078     0D03  0008               	return
  7079     0D04                     __end_of_ADC_Read:
  7080                           
  7081                           	psect	text40
  7082     0A17                     __ptext40:	
  7083 ;; *************** function _ADC_Init *****************
  7084 ;; Defined at:
  7085 ;;		line 174 in file "main.c"
  7086 ;; Parameters:    Size  Location     Type
  7087 ;;		None
  7088 ;; Auto vars:     Size  Location     Type
  7089 ;;		None
  7090 ;; Return value:  Size  Location     Type
  7091 ;;                  1    wreg      void 
  7092 ;; Registers used:
  7093 ;;		None
  7094 ;; Tracked objects:
  7095 ;;		On entry : 0/0
  7096 ;;		On exit  : 0/0
  7097 ;;		Unchanged: 0/0
  7098 ;; Data sizes:     COMMON   BANK0   BANK1   BANK3   BANK2
  7099 ;;      Params:         0       0       0       0       0
  7100 ;;      Locals:         0       0       0       0       0
  7101 ;;      Temps:          0       0       0       0       0
  7102 ;;      Totals:         0       0       0       0       0
  7103 ;;Total ram usage:        0 bytes
  7104 ;; Hardware stack levels used: 1
  7105 ;; Hardware stack levels required when called: 1
  7106 ;; This function calls:
  7107 ;;		Nothing
  7108 ;; This function is called by:
  7109 ;;		_main
  7110 ;; This function uses a non-reentrant model
  7111 ;;
  7112                           
  7113     0A17                     _ADC_Init:	
  7114                           ;psect for function _ADC_Init
  7115                           
  7116     0A17                     l3086:	
  7117                           ;incstack = 0
  7118                           ; Regs used in _ADC_Init: []
  7119                           
  7120                           
  7121                           ;main.c: 175:     ANSEL = 0x2F;
  7122     0A17  302F               	movlw	47
  7123     0A18  1683               	bsf	3,5	;RP0=1, select bank3
  7124     0A19  1703               	bsf	3,6	;RP1=1, select bank3
  7125     0A1A  0088               	movwf	8	;volatile
  7126                           
  7127                           ;main.c: 176:     ANSELH = 0x1E;
  7128     0A1B  301E               	movlw	30
  7129     0A1C  0089               	movwf	9	;volatile
  7130                           
  7131                           ;main.c: 177:     ADCON1 = 0x80;
  7132     0A1D  3080               	movlw	128
  7133     0A1E  1683               	bsf	3,5	;RP0=1, select bank1
  7134     0A1F  1303               	bcf	3,6	;RP1=0, select bank1
  7135     0A20  009F               	movwf	31	;volatile
  7136                           
  7137                           ;main.c: 178:     ADCON0 = 0x01;
  7138     0A21  3001               	movlw	1
  7139     0A22  1283               	bcf	3,5	;RP0=0, select bank0
  7140     0A23  1303               	bcf	3,6	;RP1=0, select bank0
  7141     0A24  009F               	movwf	31	;volatile
  7142     0A25                     l232:
  7143     0A25  0008               	return
  7144     0A26                     __end_of_ADC_Init:
  7145                           
  7146                           	psect	text41
  7147     0C86                     __ptext41:	
  7148 ;; *************** function _ISR *****************
  7149 ;; Defined at:
  7150 ;;		line 314 in file "main.c"
  7151 ;; Parameters:    Size  Location     Type
  7152 ;;		None
  7153 ;; Auto vars:     Size  Location     Type
  7154 ;;  received        1    3[COMMON] unsigned char 
  7155 ;; Return value:  Size  Location     Type
  7156 ;;                  1    wreg      void 
  7157 ;; Registers used:
  7158 ;;		wreg, fsr0l, fsr0h, status,2, status,0
  7159 ;; Tracked objects:
  7160 ;;		On entry : 0/0
  7161 ;;		On exit  : 0/0
  7162 ;;		Unchanged: 0/0
  7163 ;; Data sizes:     COMMON   BANK0   BANK1   BANK3   BANK2
  7164 ;;      Params:         0       0       0       0       0
  7165 ;;      Locals:         1       0       0       0       0
  7166 ;;      Temps:          3       0       0       0       0
  7167 ;;      Totals:         4       0       0       0       0
  7168 ;;Total ram usage:        4 bytes
  7169 ;; Hardware stack levels used: 1
  7170 ;; This function calls:
  7171 ;;		Nothing
  7172 ;; This function is called by:
  7173 ;;		Interrupt level 1
  7174 ;; This function uses a non-reentrant model
  7175 ;;
  7176                           
  7177     0C86                     _ISR:	
  7178                           ;psect for function _ISR
  7179                           
  7180     0C86                     i1l2442:
  7181                           
  7182                           ;main.c: 315:     if(PIR1bits.RCIF){
  7183     0C86  1283               	bcf	3,5	;RP0=0, select bank0
  7184     0C87  1303               	bcf	3,6	;RP1=0, select bank0
  7185     0C88  1E8C               	btfss	12,5	;volatile
  7186     0C89  2C8B               	goto	u236_21
  7187     0C8A  2C8C               	goto	u236_20
  7188     0C8B                     u236_21:
  7189     0C8B  2CBB               	goto	i1l304
  7190     0C8C                     u236_20:
  7191     0C8C                     i1l2444:
  7192                           
  7193                           ;main.c: 316:         char received = RCREG;
  7194     0C8C  081A               	movf	26,w	;volatile
  7195     0C8D  00F3               	movwf	ISR@received
  7196     0C8E                     i1l2446:
  7197                           
  7198                           ;main.c: 317:         if(!msg_ready){
  7199     0C8E  1683               	bsf	3,5	;RP0=1, select bank1
  7200     0C8F  1303               	bcf	3,6	;RP1=0, select bank1
  7201     0C90  0832               	movf	_msg_ready^(0+128),w	;volatile
  7202     0C91  1D03               	btfss	3,2
  7203     0C92  2C94               	goto	u237_21
  7204     0C93  2C95               	goto	u237_20
  7205     0C94                     u237_21:
  7206     0C94  2CB9               	goto	i1l2462
  7207     0C95                     u237_20:
  7208     0C95                     i1l2448:
  7209                           
  7210                           ;main.c: 318:             if(received == '\n' || rx_index >= 7){
  7211     0C95  300A               	movlw	10
  7212     0C96  0673               	xorwf	ISR@received,w
  7213     0C97  1903               	btfsc	3,2
  7214     0C98  2C9A               	goto	u238_21
  7215     0C99  2C9B               	goto	u238_20
  7216     0C9A                     u238_21:
  7217     0C9A  2CA3               	goto	i1l2452
  7218     0C9B                     u238_20:
  7219     0C9B                     i1l2450:
  7220     0C9B  3007               	movlw	7
  7221     0C9C  1283               	bcf	3,5	;RP0=0, select bank0
  7222     0C9D  1303               	bcf	3,6	;RP1=0, select bank0
  7223     0C9E  026D               	subwf	_rx_index,w	;volatile
  7224     0C9F  1C03               	skipc
  7225     0CA0  2CA2               	goto	u239_21
  7226     0CA1  2CA3               	goto	u239_20
  7227     0CA2                     u239_21:
  7228     0CA2  2CB1               	goto	i1l2458
  7229     0CA3                     u239_20:
  7230     0CA3                     i1l2452:
  7231                           
  7232                           ;main.c: 319:                 rx_buffer[rx_index] = '\0';
  7233     0CA3  1283               	bcf	3,5	;RP0=0, select bank0
  7234     0CA4  086D               	movf	_rx_index,w
  7235     0CA5  3EB8               	addlw	(low (_rx_buffer| 0))& (0+255)
  7236     0CA6  0084               	movwf	4
  7237     0CA7  1383               	bcf	3,7	;select IRP bank1
  7238     0CA8  0180               	clrf	0
  7239     0CA9                     i1l2454:
  7240                           
  7241                           ;main.c: 320:                 msg_ready = 1;
  7242     0CA9  3001               	movlw	1
  7243     0CAA  1683               	bsf	3,5	;RP0=1, select bank1
  7244     0CAB  1303               	bcf	3,6	;RP1=0, select bank1
  7245     0CAC  00B2               	movwf	_msg_ready^(0+128)	;volatile
  7246     0CAD                     i1l2456:
  7247                           
  7248                           ;main.c: 321:                 rx_index = 0;
  7249     0CAD  1283               	bcf	3,5	;RP0=0, select bank0
  7250     0CAE  1303               	bcf	3,6	;RP1=0, select bank0
  7251     0CAF  01ED               	clrf	_rx_index	;volatile
  7252                           
  7253                           ;main.c: 322:             }else{
  7254     0CB0  2CB9               	goto	i1l2462
  7255     0CB1                     i1l2458:
  7256                           
  7257                           ;main.c: 323:                 rx_buffer[rx_index++] = received;
  7258     0CB1  086D               	movf	_rx_index,w
  7259     0CB2  3EB8               	addlw	(low (_rx_buffer| 0))& (0+255)
  7260     0CB3  0084               	movwf	4
  7261     0CB4  0873               	movf	ISR@received,w
  7262     0CB5  1383               	bcf	3,7	;select IRP bank1
  7263     0CB6  0080               	movwf	0
  7264     0CB7                     i1l2460:
  7265     0CB7  3001               	movlw	1
  7266     0CB8  07ED               	addwf	_rx_index,f	;volatile
  7267     0CB9                     i1l2462:
  7268                           
  7269                           ;main.c: 326:         PIR1bits.RCIF = 0;
  7270     0CB9  1283               	bcf	3,5	;RP0=0, select bank0
  7271     0CBA  128C               	bcf	12,5	;volatile
  7272     0CBB                     i1l304:
  7273     0CBB  0872               	movf	??_ISR+2,w
  7274     0CBC  008A               	movwf	10
  7275     0CBD  0871               	movf	??_ISR+1,w
  7276     0CBE  0084               	movwf	4
  7277     0CBF  0E70               	swapf	??_ISR,w
  7278     0CC0  0083               	movwf	3
  7279     0CC1  0EFE               	swapf	btemp,f
  7280     0CC2  0E7E               	swapf	btemp,w
  7281     0CC3  0009               	retfie
  7282     0CC4                     __end_of_ISR:
  7283     0002                     ___latbits      equ	2
  7284     007E                     btemp           set	126	;btemp
  7285     007E                     wtemp0          set	126
  7286                           
  7287                           	psect	intentry
  7288     0004                     __pintentry:	
  7289                           ;incstack = 0
  7290 ;; hardware stack exceeded
  7291                           ; Regs used in _ISR: [wreg-fsr0h+status,2+status,0]
  7292                           
  7293     0004                     interrupt_function:
  7294     007E                     saved_w         set	btemp
  7295     0004  00FE               	movwf	btemp
  7296     0005  0E03               	swapf	3,w
  7297     0006  00F0               	movwf	??_ISR
  7298     0007  0804               	movf	4,w
  7299     0008  00F1               	movwf	??_ISR+1
  7300     0009  080A               	movf	10,w
  7301     000A  00F2               	movwf	??_ISR+2
  7302     000B  120A  158A  2C86   	ljmp	_ISR
  7303                           
  7304                           	psect	config
  7305                           
  7306                           ;Config register CONFIG1 @ 0x2007
  7307                           ;	Oscillator Selection bits
  7308                           ;	FOSC = HS, HS oscillator: High-speed crystal/resonator on RA6/OSC2/CLKOUT and RA7/OSC1
      +                          /CLKIN
  7309                           ;	Watchdog Timer Enable bit
  7310                           ;	WDTE = OFF, WDT disabled and can be enabled by SWDTEN bit of the WDTCON register
  7311                           ;	Power-up Timer Enable bit
  7312                           ;	PWRTE = ON, PWRT enabled
  7313                           ;	RE3/MCLR pin function select bit
  7314                           ;	MCLRE = ON, RE3/MCLR pin function is MCLR
  7315                           ;	Code Protection bit
  7316                           ;	CP = OFF, Program memory code protection is disabled
  7317                           ;	Data Code Protection bit
  7318                           ;	CPD = OFF, Data memory code protection is disabled
  7319                           ;	Brown Out Reset Selection bits
  7320                           ;	BOREN = ON, BOR enabled
  7321                           ;	Internal External Switchover bit
  7322                           ;	IESO = OFF, Internal/External Switchover mode is disabled
  7323                           ;	Fail-Safe Clock Monitor Enabled bit
  7324                           ;	FCMEN = OFF, Fail-Safe Clock Monitor is disabled
  7325                           ;	Low Voltage Programming Enable bit
  7326                           ;	LVP = OFF, RB3 pin has digital I/O, HV on MCLR must be used for programming
  7327                           ;	In-Circuit Debugger Mode bit
  7328                           ;	DEBUG = 0x1, unprogrammed default
  7329     2007                     	org	8199
  7330     2007  23E2               	dw	9186

Data Sizes:
    Strings     109
    Constant    0
    Data        4
    BSS         109
    Persistent  0
    Stack       0

Auto Spaces:
    Space          Size  Autos    Used
    COMMON           14      7      10
    BANK0            80     67      78
    BANK1            80     26      61
    BANK3            96     24      88
    BANK2            96      0       0

Pointer List with Targets:

    Display_Sensor_Values@msg	PTR const unsigned char  size(1) Largest target is 8
		 -> rx_buffer(BANK1[8]), 

    f$.$buffer	PTR unsigned char  size(2) Largest target is 6
		 -> update_bpm@buffer(BANK0[6]), 

    f$.$source	PTR const unsigned char  size(1) Largest target is 0

    fputc@fp	PTR struct _IO_FILE size(2) Largest target is 11
		 -> sprintf@f(BANK0[11]), 

    fputc@fp$.$buffer	PTR unsigned char  size(2) Largest target is 6
		 -> update_bpm@buffer(BANK0[6]), 

    fputc@fp$.$source	PTR const unsigned char  size(1) Largest target is 0

    LCD_Write_String@Str	PTR const unsigned char  size(2) Largest target is 19
		 -> Display_Sensor_Values@sensorB(BANK0[4]), STR_11(CODE[15]), STR_13(CODE[11]), STR_14(CODE[11]), 
		 -> STR_2(CODE[4]), STR_5(CODE[16]), STR_6(CODE[9]), STR_7(CODE[19]), 
		 -> STR_9(CODE[6]), update_bpm@buffer(BANK0[6]), 

    MAX30102_ReadFIFO@ir	PTR unsigned long  size(1) Largest target is 4
		 -> main@ir(BANK3[4]), 

    MAX30102_ReadFIFO@red	PTR unsigned long  size(1) Largest target is 4
		 -> main@red(BANK3[4]), 

    S864$buffer	PTR unsigned char  size(2) Largest target is 6
		 -> update_bpm@buffer(BANK0[6]), 

    S864$source	PTR const unsigned char  size(1) Largest target is 0

    sprintf@ap	PTR void [1] size(1) Largest target is 2
		 -> ?_sprintf(BANK0[2]), 

    sprintf@fmt	PTR const unsigned char  size(1) Largest target is 3
		 -> STR_3(CODE[3]), 

    sprintf@s	PTR unsigned char  size(1) Largest target is 6
		 -> update_bpm@buffer(BANK0[6]), 

    UART_TxString@s	PTR const unsigned char  size(1) Largest target is 3
		 -> STR_1(CODE[3]), STR_10(CODE[3]), STR_12(CODE[3]), STR_4(CODE[3]), 
		 -> STR_8(CODE[3]), 

    vfpfcnvrt@ap	PTR PTR void  size(1) Largest target is 1
		 -> sprintf@ap(BANK0[1]), 

    vfpfcnvrt@cp	PTR unsigned char  size(1) Largest target is 3
		 -> STR_3(CODE[3]), 

    vfpfcnvrt@fmt	PTR PTR unsigned char  size(1) Largest target is 1
		 -> vfprintf@cfmt(BANK0[1]), 

    vfpfcnvrt@fp	PTR struct _IO_FILE size(2) Largest target is 11
		 -> sprintf@f(BANK0[11]), 

    vfprintf@ap	PTR PTR void  size(1) Largest target is 1
		 -> sprintf@ap(BANK0[1]), 

    vfprintf@cfmt	PTR unsigned char  size(1) Largest target is 3
		 -> STR_3(CODE[3]), 

    vfprintf@fmt	PTR const unsigned char  size(1) Largest target is 3
		 -> STR_3(CODE[3]), 

    vfprintf@fp	PTR struct _IO_FILE size(2) Largest target is 11
		 -> sprintf@f(BANK0[11]), 


Critical Paths under _main in COMMON

    _main->_ADC_Read
    _process_heart_rate->___lwdiv
    _vfpfcnvrt->___lwdiv
    _UART_TxString->_UART_TxChar
    _MAX30102_Temp_dC10->_MAX_Write
    _MAX_Read->_I2C_Read
    _MAX30102_ReadFIFO->_I2C_Read
    _MAX30102_Init->_MAX_Write
    _MAX_Write->_I2C_Write
    _LCD_Write_Char->_LCD_Write_4Bit
    _LCD_CMD->_LCD_Write_4Bit
    _LCD_Write_4Bit->_IO_Expander_Write
    _IO_Expander_Write->_I2C_Write

Critical Paths under _ISR in COMMON

    None.

Critical Paths under _main in BANK0

    _main->_process_heart_rate
    _process_heart_rate->_update_bpm
    _update_bpm->_sprintf
    _sprintf->_vfprintf
    _vfprintf->_vfpfcnvrt
    _vfpfcnvrt->_fputc
    _MAX30102_Temp_dC10->___wmul
    _LCD_PrintDeciC->___awdiv
    _LCD_Init->_LCD_CMD
    _Display_Sensor_Values->_LCD_Clear
    _Display_Sensor_Values->_LCD_Set_Cursor
    _LCD_Write_String->_LCD_Write_Char
    _LCD_Write_Char->_LCD_Write_4Bit
    _LCD_Set_Cursor->_LCD_CMD
    _LCD_Clear->_LCD_CMD
    _LCD_CMD->_LCD_Write_4Bit

Critical Paths under _ISR in BANK0

    None.

Critical Paths under _main in BANK1

    _main->_process_heart_rate

Critical Paths under _ISR in BANK1

    None.

Critical Paths under _main in BANK3

    None.

Critical Paths under _ISR in BANK3

    None.

Critical Paths under _main in BANK2

    None.

Critical Paths under _ISR in BANK2

    None.

Call Graph Tables:

 ---------------------------------------------------------------------------------
 (Depth) Function   	        Calls       Base Space   Used Autos Params    Refs
 ---------------------------------------------------------------------------------
 (0) _main                                                41    41      0   12029
                                             23 BANK1      3     3      0
                                              0 BANK3     24    24      0
                           _ADC_Init
                           _ADC_Read
              _Display_Sensor_Values
                           _I2C_Init
                          _LCD_Clear
                           _LCD_Init
                     _LCD_PrintDeciC
                     _LCD_Set_Cursor
                   _LCD_Write_String
                      _MAX30102_Init
                  _MAX30102_ReadFIFO
                 _MAX30102_Temp_dC10
                          _UART_Init
                      _UART_TxString
                 _process_heart_rate
 ---------------------------------------------------------------------------------
 (1) _process_heart_rate                                  27    23      4    5019
                                             63 BANK0      4     0      4
                                              0 BANK1     23    23      0
                     _LCD_Set_Cursor
                   _LCD_Write_String
                            ___lwdiv
                             _millis
                         _update_bpm
 ---------------------------------------------------------------------------------
 (2) _update_bpm                                          16    14      2    3368
                                             47 BANK0     16    14      2
                     _LCD_Set_Cursor
                   _LCD_Write_String
                      _UART_TxString
                            _sprintf
 ---------------------------------------------------------------------------------
 (3) _sprintf                                             19    15      4    1995
                                             30 BANK0     17    13      4
                           _vfprintf
 ---------------------------------------------------------------------------------
 (4) _vfprintf                                             5     1      4    1676
                                             25 BANK0      5     1      4
                          _vfpfcnvrt
 ---------------------------------------------------------------------------------
 (5) _vfpfcnvrt                                           13     9      4    1476
                                             13 BANK0     12     8      4
                            ___lwdiv
                            ___lwmod
                              _fputc
 ---------------------------------------------------------------------------------
 (6) _fputc                                               13     9      4     329
                                              0 BANK0     13     9      4
                              _putch
 ---------------------------------------------------------------------------------
 (7) _putch                                                1     1      0       0
 ---------------------------------------------------------------------------------
 (6) ___lwmod                                              5     1      4     244
                                              4 COMMON     1     1      0
                                              0 BANK0      4     0      4
 ---------------------------------------------------------------------------------
 (6) ___lwdiv                                              7     3      4     259
                                              4 COMMON     3     3      0
                                              0 BANK0      4     0      4
 ---------------------------------------------------------------------------------
 (3) _UART_TxString                                        1     0      1     127
                                              5 COMMON     1     0      1
                        _UART_TxChar
 ---------------------------------------------------------------------------------
 (4) _UART_TxChar                                          1     1      0      47
                                              4 COMMON     1     1      0
 ---------------------------------------------------------------------------------
 (2) _millis                                               2     0      2       0
                                              4 COMMON     2     0      2
 ---------------------------------------------------------------------------------
 (1) _UART_Init                                            0     0      0       0
 ---------------------------------------------------------------------------------
 (1) _MAX30102_Temp_dC10                                  10     8      2     623
                                              4 BANK0     10     8      2
                           _MAX_Read
                          _MAX_Write
                             ___wmul
 ---------------------------------------------------------------------------------
 (2) ___wmul                                               6     2      4     148
                                              4 COMMON     2     2      0
                                              0 BANK0      4     0      4
 ---------------------------------------------------------------------------------
 (2) _MAX_Read                                             2     2      0     209
                                              0 BANK0      2     2      0
                           _I2C_Read
                        _I2C_Restart
                          _I2C_Start
                           _I2C_Stop
                          _I2C_Write
 ---------------------------------------------------------------------------------
 (1) _MAX30102_ReadFIFO                                   25    23      2     564
                                              0 BANK0     25    23      2
                           _I2C_Read
                        _I2C_Restart
                          _I2C_Start
                           _I2C_Stop
                          _I2C_Write
 ---------------------------------------------------------------------------------
 (3) _I2C_Restart                                          0     0      0       0
                       _I2C_WaitIdle
 ---------------------------------------------------------------------------------
 (3) _I2C_Read                                             2     2      0      81
                                              4 COMMON     2     2      0
                       _I2C_WaitIdle
 ---------------------------------------------------------------------------------
 (1) _MAX30102_Init                                        3     3      0     161
                                              0 BANK0      3     3      0
                          _MAX_Write
 ---------------------------------------------------------------------------------
 (2) _MAX_Write                                            2     1      1     161
                                              5 COMMON     2     1      1
                          _I2C_Start
                           _I2C_Stop
                          _I2C_Write
 ---------------------------------------------------------------------------------
 (1) _LCD_PrintDeciC                                      16    14      2    1793
                                              8 BANK0     16    14      2
                     _LCD_Write_Char
                            ___awdiv
                            ___awmod
 ---------------------------------------------------------------------------------
 (2) ___awmod                                              6     2      4     451
                                              4 COMMON     2     2      0
                                              0 BANK0      4     0      4
 ---------------------------------------------------------------------------------
 (2) ___awdiv                                              8     4      4     457
                                              0 BANK0      8     4      4
 ---------------------------------------------------------------------------------
 (1) _LCD_Init                                             3     3      0     429
                                              4 BANK0      3     3      0
                  _IO_Expander_Write
                            _LCD_CMD
 ---------------------------------------------------------------------------------
 (1) _I2C_Init                                             0     0      0       0
 ---------------------------------------------------------------------------------
 (1) _Display_Sensor_Values                               11    10      1    1670
                                              6 BANK0     11    10      1
                          _LCD_Clear
                     _LCD_Set_Cursor
                   _LCD_Write_String
 ---------------------------------------------------------------------------------
 (3) _LCD_Write_String                                     2     0      2     383
                                              3 BANK0      2     0      2
                     _LCD_Write_Char
 ---------------------------------------------------------------------------------
 (4) _LCD_Write_Char                                       2     2      0     288
                                              1 BANK0      2     2      0
                     _LCD_Write_4Bit
 ---------------------------------------------------------------------------------
 (3) _LCD_Set_Cursor                                       2     1      1     483
                                              4 BANK0      2     1      1
                            _LCD_CMD
 ---------------------------------------------------------------------------------
 (1) _LCD_Clear                                            2     2      0     288
                                              4 BANK0      2     2      0
                            _LCD_CMD
 ---------------------------------------------------------------------------------
 (4) _LCD_CMD                                              3     3      0     288
                                              1 BANK0      3     3      0
                     _LCD_Write_4Bit
 ---------------------------------------------------------------------------------
 (5) _LCD_Write_4Bit                                       2     2      0     194
                                              6 COMMON     1     1      0
                                              0 BANK0      1     1      0
                  _IO_Expander_Write
 ---------------------------------------------------------------------------------
 (6) _IO_Expander_Write                                    1     1      0      94
                                              5 COMMON     1     1      0
                          _I2C_Start
                           _I2C_Stop
                          _I2C_Write
 ---------------------------------------------------------------------------------
 (7) _I2C_Write                                            1     1      0      47
                                              4 COMMON     1     1      0
                       _I2C_WaitIdle
 ---------------------------------------------------------------------------------
 (7) _I2C_Stop                                             0     0      0       0
                       _I2C_WaitIdle
 ---------------------------------------------------------------------------------
 (7) _I2C_Start                                            0     0      0       0
                       _I2C_WaitIdle
 ---------------------------------------------------------------------------------
 (8) _I2C_WaitIdle                                         0     0      0       0
 ---------------------------------------------------------------------------------
 (1) _ADC_Read                                             5     2      3     221
                                              4 COMMON     3     0      3
                                              0 BANK0      2     2      0
 ---------------------------------------------------------------------------------
 (1) _ADC_Init                                             0     0      0       0
 ---------------------------------------------------------------------------------
 Estimated maximum stack depth 8
 ---------------------------------------------------------------------------------
 (Depth) Function   	        Calls       Base Space   Used Autos Params    Refs
 ---------------------------------------------------------------------------------
 (9) _ISR                                                  4     4      0      45
                                              0 COMMON     4     4      0
 ---------------------------------------------------------------------------------
 Estimated maximum stack depth 9
 ---------------------------------------------------------------------------------

 Call Graph Graphs:

 _main (ROOT)
   _ADC_Init
   _ADC_Read
   _Display_Sensor_Values
     _LCD_Clear
       _LCD_CMD
         _LCD_Write_4Bit
           _IO_Expander_Write
             _I2C_Start
               _I2C_WaitIdle
             _I2C_Stop
               _I2C_WaitIdle
             _I2C_Write
               _I2C_WaitIdle
     _LCD_Set_Cursor
       _LCD_CMD
     _LCD_Write_String
       _LCD_Write_Char
         _LCD_Write_4Bit
   _I2C_Init
   _LCD_Clear
   _LCD_Init
     _IO_Expander_Write
     _LCD_CMD
   _LCD_PrintDeciC
     _LCD_Write_Char
     ___awdiv
     ___awmod
   _LCD_Set_Cursor
   _LCD_Write_String
   _MAX30102_Init
     _MAX_Write
       _I2C_Start
       _I2C_Stop
       _I2C_Write
   _MAX30102_ReadFIFO
     _I2C_Read
       _I2C_WaitIdle
     _I2C_Restart
       _I2C_WaitIdle
     _I2C_Start
     _I2C_Stop
     _I2C_Write
   _MAX30102_Temp_dC10
     _MAX_Read
       _I2C_Read
       _I2C_Restart
       _I2C_Start
       _I2C_Stop
       _I2C_Write
     _MAX_Write
     ___wmul
   _UART_Init
   _UART_TxString
     _UART_TxChar
   _process_heart_rate
     _LCD_Set_Cursor
     _LCD_Write_String
     ___lwdiv
     _millis
     _update_bpm
       _LCD_Set_Cursor
       _LCD_Write_String
       _UART_TxString
       _sprintf
         _vfprintf
           _vfpfcnvrt
             ___lwdiv
             ___lwmod
             _fputc
               _putch

 _ISR (ROOT)

Address spaces:
Name               Size   Autos  Total    Usage
BANK3               96     24      88     91.7%
BITBANK3            96      0       0      0.0%
BANK2               96      0       0      0.0%
BITBANK2            96      0       0      0.0%
BANK1               80     26      61     76.2%
BITBANK1            80      0       0      0.0%
BANK0               80     67      78     97.5%
BITBANK0            80      0       0      0.0%
COMMON              14      7      10     71.4%
BITCOMMON           14      0       0      0.0%
DATA                 0      0     235      0.0%
STACK                0      0       0      0.0%


Microchip Technology PIC Macro Assembler V3.00 build 20241204225717 
Symbol Table                                                                                   Wed Sep 17 15:04:41 2025

                            pc 0002     __end_of_MAX30102_Temp_dC10 0E65                             _BF 04A0  
                           _SP 00B6                             _RS 0078                   ___awdiv@sign 0025  
                           fsr 0004            ___wmul@multiplicand 0022                            l101 0A69  
                          l104 07F5                            l113 0A9E                            l210 0F5F  
                          l107 07FD                            l204 0C18                            l141 09F8  
                          l150 0A16                            l135 09EF                            l207 0A57  
                          l232 0A25                            l144 09FC                            l153 0A05  
                          l161 0A34                            l241 0ABC                            l162 0A35  
                          l138 0A45                            l330 0293                            l235 0CF9  
                          l315 07F3                            l171 0BBF                            l147 0A12  
                          l156 0A09                            l180 0A82                            l252 0534  
                          l244 0C4B                            l420 0B57                            l229 0602  
                          l165 0BA1                            l238 0D03                            l422 0B6F  
                          l159 0A30                            l183 0ADC                            l247 0E02  
                          l255 0E64                            l168 0BBA                            l186 0BE8  
                          l274 09DA                            l195 0B97                            l283 06C8  
                          l700 0D47                            l189 0B48                            l710 0C85  
                          l279 0651                            l287 0454                            l573 0EC9  
                          l920 078D                            l912 0709                            l586 0DA0  
                          _DHB 00DB                            l950 07FF                            l927 0AFF  
                          l939 0FFF                            l883 0B22                            _RC2 003A  
                          _PEN 048A                            _ISR 0C86                            _SEN 0488  
                          _hrP 00B7                            fsr0 0004                            indf 0000  
                 ___awmod@sign 0075                __end_of_LCD_CMD 0BE9                           ?_ISR 0070  
          LCD_Write_String@Str 0023                 _LCD_Set_Cursor 0BE9                           l3020 0ECD  
                         l3100 0DA9                           l3030 0EFF                           l3022 0ECF  
                         l3110 0DD5                           l3102 0DB8                           l3016 0A36  
                         l3040 0F35                           l3032 0F05                           l3024 0ED5  
                         l3120 0DFB                           l3112 0DDD                           l3104 0DBF  
                         l3200 03DD                           l3018 0A44                           l3042 0F45  
                         l3034 0F15                           l3026 0EE5                           l3050 054E  
                         l3114 0DE5                           l3106 0DC6                           l3130 0474  
                         l3122 0455                           l3210 0407                           l3202 03E8  
                         l3044 0F4F                           l3036 0F1F                           l3028 0EEF  
                         l3060 058B                           l3052 0562                           l3116 0DED  
                         l3108 0DCD                           l3140 04E6                           l3132 0486  
                         l3124 0471                           l3220 0451                           l3212 0426  
                         l3204 03ED                           l3300 00D2                           l3230 07A1  
                         l3222 078E                           l3038 0F2F                           l3070 05AF  
                         l3062 058F                           l3054 057C                           l3046 0535  
                         l3118 0DF4                           l3134 048A                           l3150 0E27  
                         l3142 0E03                           l3206 03F5                           l3214 0435  
                         l3310 00EB                           l3302 00D7                           l2600 09E3  
                         l3232 07AE                           l3224 07A0                           l3080 05DA  
                         l3064 0591                           l3072 05C2                           l3056 0582  
                         l3048 054A                           l3136 0490                           l3152 0E29  
                         l3144 0E0B                           l3216 043B                           l3208 03FE  
                         l3160 0302                           l3400 02E0                           l3320 0125  
                         l3312 00EC                           l3304 00DE                           l3090 0CEF  
                         l2602 09E3                           l2610 09FD                           l3250 07CE  
                         l3242 07B8                           l3234 07B0                           l3082 05E4  
                         l3074 05C8                           l3066 0597                           l3058 0589  
                         l3138 0495                           l3154 0E4C                           l3146 0E15  
                         l3218 043C                           l3162 030C                           l3170 031D  
                         l3330 0152                           l3322 0127                           l3314 00F7  
                         l3306 00E1                           l3092 0CF6                           l2604 09EB  
                         l2612 0A02                           l3252 07D3                           l3244 07C5  
                         l3236 07B6                           l3076 05CE                           l3068 05AD  
                         l3084 05ED                           l3148 0E1E                           l2620 0D04  
                         l2700 06EA                           l3172 0339                           l3164 0317  
                         l3340 0191                           l3324 0138                           l3316 0114  
                         l3308 00E6                           l3332 0163                           l3086 0A17  
                         l3094 0CFD                           l2606 09F0                           l2614 0A27  
                         l3254 07DD                           l3246 07C7                           l3078 05D3  
                         l2630 0D1A                           l2622 0D06                           l2710 0736  
                         l2702 06F6                           l3190 0374                           l3174 033E  
                         l3166 031B                           l3158 02EE                           l3350 01EA  
                         l3342 01A1                           l3334 016A                           l3326 013D  
                         l3318 011C                           l3270 0069                           l3088 0CC7  
                         l2608 09F5                           l2616 0A2C                           l2800 0BED  
                         l3256 07E8                           l3248 07CD                           l2640 0D3D  
                         l2632 0D1E                           l2624 0D0E                           l2712 073C  
                         l2704 0703                           l3192 038D                           l3184 0349  
                         l3176 0340                           l3360 0243                           l3352 0204  
                         l3344 01BC                           l3336 0173                           l3328 0147  
                         l3280 008D                           l3272 006C                           l2618 0A6B  
                         l2802 0BF5                           l3098 0DA1                           l2634 0D2F  
                         l2626 0D11                           l2642 0D43                           l2650 0C57  
                         l2714 0742                           l2706 070B                           l2722 0761  
                         l2810 0B00                           l3194 03C1                           l3186 036C  
                         l3178 0348                           l3370 026C                           l3362 0252  
                         l3354 020E                           l3346 01C6                           l3338 017D  
                         l3290 00BC                           l3282 0098                           l3274 007A  
                         l3266 004B                           l2740 0BC4                           l2804 0BFD  
                         l2900 0B51                           l2636 0D35                           l2628 0D18  
                         l2660 0C74                           l2652 0C5E                           l2716 0756  
                         l2708 0723                           l2724 076C                           l2820 0B19  
                         l2812 0B04                           l3196 03D4                           l3188 036E  
                         l3380 028F                           l3372 026E                           l3364 025D  
                         l3356 0228                           l3348 01DA                           l3292 00C4  
                         l3284 009F                           l3276 007E                           l3268 005A  
                         l2742 0BCB                           l2806 0C05                           l2750 0B41  
                         l2910 0E65                           l2830 0C1C                           l2902 0B5E  
                         l2734 07F5                           l2638 0D36                           l2662 0C7B  
                         l2654 0C60                           l2646 0C4C                           l2670 0F68  
                         l2718 075A                           l2814 0B08                           l3198 03DB  
                         l3390 02A7                           l3382 0296                           l3374 0275  
                         l3366 0266                           l3358 0239                           l3294 00C7  
                         l3286 00A4                           l3278 0083                           l2744 0BDD  
                         l2824 0A46                           l2808 0C0D                           l2920 0E77  
                         l2912 0E68                           l2832 0C48                           l2904 0B65  
                         l2736 07FB                           l2656 0C64                           l2648 0C54  
                         l2664 0C81                           l2672 0F6E                           l2728 0774  
                         l2752 0ADD                           l2816 0B0A                           l2840 0603  
                         l3392 02B1                           l3384 0299                           l3376 027A  
                         l3368 0269                           l3296 00CD                           l3288 00AD  
                         l2682 0AC0                           l2738 0BC3                           l2826 0A4C  
                         l2746 0B26                           l2930 0E89                           l2922 0E7C  
                         l2914 0E6C                           l2770 0A0A                           l2906 0B6B  
                         l2762 0A83                           l2658 0C6E                           l2674 0F75  
                         l2690 06C9                           l2754 0AE2                           l2818 0B0C  
                         l2842 0610                           l3394 02BC                           l3386 029B  
                         l3378 0284                           l3298 00D1                           l2684 0AC2  
                         l2748 0B28                           l2940 0EAD                           l2932 0E90  
                         l2924 0E7E                           l2916 0E71                           l2828 0AA0  
                         l2780 0BA9                           l2772 0A0F                           l2836 09D4  
                         l2764 0A84                           l2676 0F8D                           l2668 0F60  
                         l2692 06DA                           l2756 0AEF                           l2860 0630  
                         l2844 0613                           l3396 02C6                           l3388 02A2  
                         l2686 0AC9                           l2790 0B70                           l2950 0EC5  
                         l2942 0EAE                           l2934 0E92                           l2926 0E80  
                         l2918 0E73                           l2782 0BAE                           l2774 0B99  
                         l2766 0A90                           l2678 0FBF                           l2694 06DE  
                         l2758 0AFD                           l2870 066D                           l2862 0642  
                         l2854 0618                           l2846 0615                           l3398 02D1  
                         l2688 0AD7                           l2792 0B71                           l2944 0EB5  
                         l2936 0E96                           l2928 0E86                           l2960 0D54  
                         l2784 0BB9                           l2776 0B9E                           l2768 0A92  
                         l2696 06E2                           l2880 0699                           l2872 066E  
                         l2864 064D                           l2856 0628                           l2848 0617  
                         l2794 0B7F                           l2938 0EA7                           l2946 0EBB  
                         l2970 0D68                           l2962 0D56                           l2954 0D48  
                         l2786 0BBE                           l2778 0BA5                           l2698 06E6  
                         l2890 06BD                           l2882 06A4                           l2874 0675  
                         l2866 0659                           l2858 062A                           l2796 0B87  
                         l2948 0EC0                           l2980 0D85                           l2972 0D6F  
                         l2964 0D5A                           l2956 0D49                           l2892 06BE  
                         l2884 06A7                           l2876 067F                           l2868 0664  
                         l2798 0BEC                           l2982 0D8C                           l2974 0D71  
                         l2966 0D5F                           l2958 0D4F                           l2886 06B6  
                         l2878 068A                           l2894 06C1                           l2976 0D75  
                         l2968 0D65                           l2984 0D92                           l2896 0B49  
                         l2992 0A58                           l2888 06B9                           l2986 0D97  
                         l2978 0D7F                           l2898 0B4B                           l2988 0D9C  
                         _CHS0 00FA                           _CHS1 00FB                           _CHS2 00FC  
                         _CHS3 00FD                           STR_1 0871                           STR_2 0867  
                         STR_3 087A                           STR_4 086B                           STR_5 0823  
                         STR_6 0858                           STR_7 0810                           STR_8 0877  
                         STR_9 0861                           u3000 0E77                           u3001 0E76  
                         u3010 0E86                           u3011 0E85                           u3100 0D5A  
                         u3101 0D59                           u3030 0E96                           u3110 0D65  
                         u3031 0E95                           u3111 0D64                           u3025 0E8A  
                         u3050 0EA7                           u3130 0D75                           u3051 0EA6  
                         u3131 0D74                           u3140 0D7F                           u3220 054E  
                         u3045 0E97                           u3141 0D7E                           u3125 0D69  
                         u3221 054D                           u3310 0CD8                           u2510 09EB  
                         u3070 0EBB                           u3230 0582                           u3311 0CD4  
                         u2511 09EA                           u4007 0ACB                           u3071 0EBA  
                         u3055 0EA3                           u3231 0581                           u3304 0CD1  
                         u2520 09EF                           u3080 0EC0                           u3160 0D92  
                         u3240 058F                           u3400 0490                           u2600 0D2F  
                         u2521 09EE                           u4017 0AD9                           u3081 0EBF  
                         u3065 0EAF                           u3161 0D91                           u3145 0D7B  
                         u3241 058E                           u3401 048F                           u2601 0D2E  
                         u3330 0CE2                           u2530 09FC                           u3170 0D97  
                         u3090 0D4F                           u3250 05C8                           u3410 04AF  
                         u4027 0CF3                           u3331 0CDE                           u2531 09FB  
                         u3171 0D96                           u3155 0D86                           u3091 0D4E  
                         u3251 05C7                           u3324 0CDB                           u2540 0A09  
                         u3260 05CE                           u3420 04BD                           u2620 0D43  
                         u2700 0F6E                           u3500 0382                           u2541 0A08  
                         u3261 05CD                           u2621 0D42                           u2605 0D2B  
                         u2701 0F6D                           u3350 0CEC                           u2550 0A34  
                         u3270 05D3                           u3430 04FE                           u2630 0C54  
                         u2710 0F8D                           u3351 0CE8                           u2551 0A33  
                         u3271 05D2                           u3415 04AA                           u2615 0D37  
                         u2631 0C53                           u2711 0F8C                           u3511 03AC  
                         u3344 0CE5                           u3280 05ED                           u3440 050C  
                         u2560 0D0E                           u2720 0FBF                           u3520 03D4  
                         u3512 03AD                           u3281 05EC                           u3425 04B8  
                         u2561 0D0D                           u2721 0FBE                           u3521 03D3  
                         u3513 03B2                           u3505 037D                           u3370 0CFD  
                         u3290 0CCE                           u2650 0C64                           u2730 0FE2  
                         u3530 03DB                           u3514 03B3                           u3450 0302  
                         u3610 009F                           u3371 0CFC                           u3291 0CCA  
                         u3435 04F9                           u2651 0C63                           u3531 03DA  
                         u3523 03D0                           u3515 03B8                           u3451 0301  
                         u3611 009E                           u3364 0CEF                           u3380 047E  
                         u2580 0D1E                           u2660 0C6E                           u2740 06DA  
                         u2820 0AFD                           u2900 0630                           u3540 03ED  
                         u3516 03B9                           u3700 025D                           u3620 00A4  
                         u2805 0BD0                           u3445 0507                           u3381 047C  
                         u2581 0D1D                           u2661 0C6D                           u2645 0C58  
                         u2725 0FBB                           u2741 06D9                           u2821 0AFC  
                         u2901 062F                           u3541 03EC                           u3453 02FE  
                         u3701 025C                           u3621 00A3                           u3390 047F  
                         u2830 0A9E                           u2750 06F6                           u2910 064D  
                         u3550 03FE                           u3710 0266                           u3630 00C4  
                         u2815 0B34                           u2831 0A9D                           u2575 0D12  
                         u2751 06F5                           u2911 064C                           u3551 03FD  
                         u3711 0265                           u3631 00C3                           u2840 0A16  
                         u2680 0C81                           u2760 073C                           u2920 0659  
                         u3560 0407                           u3640 00CD                           u2841 0A15  
                         u2681 0C80                           u2665 0C6A                           u2761 073B  
                         u2921 0658                           u3561 0406                           u3481 035D  
                         u3465 0322                           u3641 00CC                           u2850 0BA5  
                         u2690 0F68                           u2770 0741                           u2930 0664  
                         u3570 0451                           u3490 0374                           u3482 035E  
                         u3650 00D7                           u2851 0BA4                           u2595 0D1F  
                         u2675 0C75                           u2691 0F67                           u2771 0740  
                         u2931 0663                           u3571 0450                           u3491 0373  
                         u3483 0364                           u3475 034C                           u3651 00D6  
                         u3580 07B6                           u2860 0BB6                           u2780 0760  
                         u2940 066D                           u3484 0365                           u3660 00E6  
                         u3581 07B5                           u2861 0BB2                           u2781 075F  
                         u2941 066C                           u3573 044D                           u3485 036B  
                         u3661 00E5                           u3590 07CD                           u2950 0B51  
                         u2790 07FB                           u3486 036C                           u3670 00EB  
                         u3591 07CC                           u2951 0B50                           u2791 07FA  
                         u3807 020A                           u3671 00EA                           u3727 0062  
                         u2880 0BBE                           u3680 0125                           u2881 0BBD  
                         u3817 0224                           u3681 0124                           u3737 00B5  
                         u2890 0B97                           u2874 0BB9                           u3690 016A  
                         u2891 0B96                           u3907 0EFB                           u3827 023F  
                         u3747 0179                           u3691 0169                           u2980 0B6B  
                         _RCEN 048B                           u3917 0F0B                           u2981 0B6A  
                         u2965 0B58                           u3837 024B                           u3757 018D  
                         u2990 0E6C                           u3927 0F1B                           u2991 0E6B  
                         u2975 0B5F                           u3847 02D9                           u3767 01A7  
                         u3937 0F2B                           u3857 06AF                           u3777 01C2  
                         u3947 0F3B                           u3867 0E11                           u3787 01D6  
                         u3957 0F4B                           u3877 0DB1                           u3797 01F0  
                         u3967 0F5B                           u3887 0EDB                           u3977 0B45  
                         u3897 0EEB                           u3987 0A52                           u3997 0BE3  
                         _RSEN 0489                           _TXIF 0064                           _Seat 00DC  
            ?_LCD_Write_String 0023                           _dbuf 0190                           _main 004B  
                         _prec 0069               __end_of_I2C_Init 0A46               __end_of_I2C_Read 0BC0  
                         btemp 007E               __end_of_I2C_Stop 0A0A               __end_of_ADC_Init 0A26  
             __end_of_ADC_Read 0D04                           start 000E             ??_LCD_Write_String 0077  
         LCD_Write_4Bit@Nibble 0020                 _LCD_PrintDeciC 0535                          ??_ISR 0070  
             __end_of_LCD_Init 0F60                          ?_main 0070                          _ACKEN 048C  
                        _ACKDT 048D                __end_of___awdiv 0ECA                          STR_10 0874  
                        STR_11 0833                          STR_12 086E                          STR_13 084D  
                        STR_14 0842                __end_of___awmod 0DA1                          _ANSEL 0188  
              ___awdiv@divisor 0020               __end_of_MAX_Read 0C4C                __end_of___lwdiv 0D48  
                        i1l304 0CBB                __end_of___lwmod 0C86                ___awdiv@counter 0024  
                        _RCREG 001A                   vfpfcnvrt@fmt 002F                          _SPBRG 0099  
                        _SSPIF 0063                          _TXREG 0019         __end_of_LCD_Set_Cursor 0C19  
                        _flags 006B                          _fputc 0F60                          _width 0067  
                        _putch 07FF              __end_of_I2C_Start 09FD              __end_of_I2C_Write 0A36  
                        pclath 000A                   _I2C_WaitIdle 09E3                          status 0003  
                        wtemp0 007E                __end_of_sprintf 0B23                 _LCD_Write_4Bit 0ABD  
       __end_of_LCD_PrintDeciC 0603              _MAX30102_ReadFIFO 0455                 _LCD_Write_Char 0B23  
              __initialization 0011                   __end_of_main 02EE             ?_MAX30102_ReadFIFO 0020  
            _IO_Expander_Write 0A6A          _Display_Sensor_Values 078E             ?_IO_Expander_Write 0070  
                       ??_main 00D7              __end_of_LCD_Clear 0A58            ??_MAX30102_ReadFIFO 0022  
                    ??_LCD_CMD 0021     Display_Sensor_Values@F1964 0063     Display_Sensor_Values@F1966 00A8  
        __end_of_MAX30102_Init 0E03            ??_IO_Expander_Write 0075                      I2C_Read@d 0075  
              ?_LCD_Set_Cursor 0024             MAX30102_ReadFIFO@d 0032             MAX30102_ReadFIFO@i 0038  
                       _ADCON0 001F                         _ADCON1 009F                         ?_fputc 0020  
                       _ADRESH 001E                         _ADRESL 009E               ___awdiv@dividend 0022  
                       ?_putch 0070                         _ANSELH 0189                         i1l2450 0C9B  
                       i1l2442 0C86                         i1l2460 0CB7                         i1l2452 0CA3  
                       i1l2444 0C8C                         i1l2454 0CA9                         i1l2462 0CB9  
                       i1l2446 0C8E                         i1l2456 0CAD                         i1l2448 0C95  
                       i1l2458 0CB1                         u236_20 0C8C                         u236_21 0C8B  
                       u237_20 0C95                         u237_21 0C94                         u238_20 0C9B  
                       u238_21 0C9A                         u239_20 0CA3                         u239_21 0CA2  
            __end_of_MAX_Write 0ABD                         _SSPADD 0093                         _TRISC2 043A  
                 _SystemStatus 00B4                         _TRISC3 043B                         _TRISC4 043C  
                       _SSPCON 0014                         _SSPBUF 0013         __end_of_LCD_Write_4Bit 0ADD  
    __end_of_MAX30102_ReadFIFO 0535         __end_of_LCD_Write_Char 0B49                   ?_UART_TxChar 0070  
              ?_LCD_PrintDeciC 0028      __end_of_IO_Expander_Write 0A83                   vfprintf@cfmt 003D  
            __end_of_UART_Init 0A6A                         ___wmul 0B49                      ??___awdiv 0074  
                    ??___awmod 0074                      ??___lwdiv 0074                      ??___lwmod 0074  
      process_heart_rate@ir_ac 00CE                         _ir_buf 01B0                         _millis 09D4  
             ___awdiv@quotient 0026                ___awmod@divisor 0020     __end_of_process_heart_rate 0455  
              ___awmod@counter 0074                         main@ir 01E4                  main@temp_tick 01E2  
                       fputc@c 0020                   __pdataCOMMON 0079                      ?_I2C_Init 0070  
                    ?_I2C_Read 0070                      ?_I2C_Stop 0070                      ?_ADC_Init 0070  
                    ?_ADC_Read 0074                         saved_w 007E                    MAX_Read@reg 0020  
             update_bpm@buffer 0054                         putch@c 0070               __end_of_vfprintf 0B00  
                    ??_sprintf 0042        __end_of__initialization 0047                  _peak_detected 00B0  
                    ?_LCD_Init 0070                ?_LCD_Write_4Bit 0070                ?_LCD_Write_Char 0070  
        __end_of_UART_TxString 0A9F                      ?_MAX_Read 0070                 __pcstackCOMMON 0070  
                 __pidataBANK1 09D1         ?_Display_Sensor_Values 0026                  __end_of_fputc 1000  
                __end_of_putch 0800                  update_bpm@sum 005A                     ??_I2C_Init 0074  
                   ??_I2C_Read 0074                     ??_I2C_Stop 0074                     ??_ADC_Init 0074  
                   ??_ADC_Read 0020                    ISR@received 0073             _MAX30102_Temp_dC10 0E03  
        process_heart_rate@avg 00C4          process_heart_rate@now 00D2          process_heart_rate@sum 00CA  
                      ??_fputc 0024                      MAX_Read@v 0021                        ??_putch 0074  
                   __pbssBANK0 0063                     __pbssBANK1 00A0                     __pbssBANK3 0190  
          ?_MAX30102_Temp_dC10 0024                     ??_LCD_Init 0024            process_heart_rate@i 00D6  
                   ??_MAX_Read 0076                     __pmaintext 004B                   I2C_Read@more 0074  
                      ?___wmul 0020                     __pintentry 0004            MAX30102_ReadFIFO@ir 0021  
                      ?_millis 0074           ??_MAX30102_Temp_dC10 0026                        _ADCcode 00B5  
                   I2C_Write@d 0074                  ??_I2C_Restart 0074                        _LCD_CMD 0BC0  
              LCD_PrintDeciC@b 002C                LCD_PrintDeciC@i 0035                        _SSPCON2 0091  
                      _SSPSTAT 0094                     __stringtab 0800                        _i2c_add 0077  
                    _I2C_Start 09F0                     _first_beat 00DA                      _I2C_Write 0A26  
                      ___awdiv 0E65                        ___awmod 0D48                        ___lwdiv 0D04  
                      ___lwmod 0C4C                      ?_vfprintf 0039               ??_LCD_Set_Cursor 0077  
                      _bpm_buf 00A0                        __ptext1 02EE                        __ptext2 0603  
                      __ptext3 0B00                        __ptext4 0ADD                        __ptext5 06C9  
                      __ptext6 0F60                        __ptext7 07FF                        __ptext8 0C4C  
                      __ptext9 0D04               ___awmod@dividend 0022                      _LCD_Clear 0A46  
                      _sprintf 0B00                        main@red 01DE                        clrloop0 09DC  
          __end_of_I2C_Restart 0A17           end_of_initialization 0047               ??_LCD_PrintDeciC 002A  
                      fputc@fp 0022                     ?_I2C_Start 0070                     ?_I2C_Write 0070  
               UART_TxString@s 0075                      _MAX_Write 0A9F              __end_of_vfpfcnvrt 078E  
                    _RCSTAbits 0018              update_bpm@avg_bpm 005D               vfpfcnvrt@convarg 0033  
            LCD_PrintDeciC@neg 0034                     ??_vfprintf 0077              update_bpm@new_bpm 004F  
                    _UART_Init 0A58                 _last_peak_time 00AE                     LCD_CMD@CMD 0023  
     Display_Sensor_Values@msg 0026                     _update_bpm 0603                     ?_LCD_Clear 0070  
             ??_LCD_Write_4Bit 0076   Display_Sensor_Values@sensorA 0028   Display_Sensor_Values@sensorB 002C  
           _process_heart_rate 02EE               ??_LCD_Write_Char 0021                     main@t_dC10 01DC  
                    _TXSTAbits 0098            ?_process_heart_rate 005F                     ?_MAX_Write 0075  
      ??_Display_Sensor_Values 0027                   MAX_Write@reg 0076                   MAX_Write@val 0075  
                  vfpfcnvrt@ap 0030                    vfpfcnvrt@cp 0037                    vfpfcnvrt@fp 002D  
               __end_of___wmul 0B70               _LCD_Write_String 0B70                     ?_UART_Init 0070  
                __pidataCOMMON 07FE                 __end_of_millis 09DB           ??_process_heart_rate 00C0  
                  _I2C_Restart 0A0A            start_initialization 0011                    __end_of_ISR 0CC4  
                  update_bpm@i 005C  process_heart_rate@current_bpm 00C8                    ??_I2C_Start 0074  
                  ??_I2C_Write 0074                    vfprintf@fmt 003B                       ??___wmul 0074  
                  __pdataBANK1 00DA                       ??_millis 0076                       ?_LCD_CMD 0070  
                  __pbssCOMMON 0077                      ___latbits 0002                  __pcstackBANK0 0020  
                __pcstackBANK1 00C0                  __pcstackBANK3 01D0                  _MAX30102_Init 0DA1  
                  ?_update_bpm 004F                    ??_LCD_Clear 0024                  ?_I2C_WaitIdle 0070  
         process_heart_rate@dt 00D4           process_heart_rate@ir 005F                    ??_MAX_Write 0076  
             ___lwdiv@dividend 0022          IO_Expander_Write@Data 0075                       ?___awdiv 0020  
                     ?___awmod 0020                       ?___lwdiv 0020                       ?___lwmod 0020  
                    _bpm_index 006C                      _buf_index 00B1                    ??_UART_Init 0074  
                    __pstrings 0800           MAX30102_ReadFIFO@red 0020                       _I2C_Init 0A36  
                     _I2C_Read 0B98                       _I2C_Stop 09FD                       _ADC_Init 0A17  
                     _ADC_Read 0CC4                 ?_MAX30102_Init 0070                    ADC_Read@ch0 0076  
                  ADC_Read@ch1 0075                    ADC_Read@ch2 0074                    ADC_Read@ch3 0021  
                UART_TxChar@ch 0074               ___lwdiv@quotient 0075                       ?_sprintf 003E  
               ??_I2C_WaitIdle 0074              interrupt_function 0004                       _LCD_Init 0ECA  
               ___wmul@product 0074                      clear_ram0 09DB                      _msg_ready 00B2  
                     _PIE1bits 008C                  ??_UART_TxChar 0074                       _MAX_Read 0C19  
                _UART_TxString 0A83                       _PIR1bits 000C                       _CIntData 00B3  
                     _GO_nDONE 00F9               LCD_PrintDeciC@fp 0032               LCD_PrintDeciC@ip 0036  
                    _vfpfcnvrt 06C9                      _rx_buffer 00B8                    __stringbase 080F  
            ___wmul@multiplier 0020                     vfpfcnvrt@c 0038       __end_of_LCD_Write_String 0B98  
               ?_UART_TxString 0075        MAX30102_Temp_dC10@tfrac 002D                     vfprintf@ap 003C  
                   vfprintf@fp 0039  __end_of_Display_Sensor_Values 07F4            __end_of_UART_TxChar 07FE  
                   ?_vfpfcnvrt 002D             __end_of__stringtab 0810                ??_MAX30102_Init 0020  
                 ?_I2C_Restart 0070                     sprintf@fmt 003F                ___lwdiv@divisor 0020  
              ___lwdiv@counter 0074                       __ptext10 0A83                       __ptext11 07F4  
                     __ptext20 0DA1                       __ptext12 09D4                       __ptext21 0A9F  
                     __ptext13 0A58                       __ptext30 0BE9                       __ptext22 0535  
                     __ptext14 0E03                       __ptext31 0A46                       __ptext23 0D48  
                     __ptext15 0B49                       __ptext40 0A17                       __ptext32 0BC0  
                     __ptext24 0E65                       __ptext16 0C19                       __ptext41 0C86  
                     __ptext33 0ABD                       __ptext25 0ECA                       __ptext17 0455  
                     __ptext34 0A6A                       __ptext26 0A36                       __ptext18 0A0A  
                     __ptext35 0A26                       __ptext27 078E                       __ptext19 0B98  
                     __ptext36 09FD                       __ptext28 0B70                       __ptext37 09F0  
                     __ptext29 0B23                       __ptext38 09E3                       __ptext39 0CC4  
              _BackLight_State 0079                       _timer_ms 00AC         Display_Sensor_Values@i 0030  
                     _rx_index 006D                       _vfprintf 0ADD                       main@adc2 01D8  
                     main@adc3 01DA                       main@adc5 01D0                       main@adc6 01D2  
                     main@adc8 01D4                       main@adc9 01D6           __end_of_I2C_WaitIdle 09F0  
                   _INTCONbits 000B         MAX30102_Temp_dC10@frac 002A         MAX30102_Temp_dC10@tint 002C  
                 ??_update_bpm 0051             LCD_Write_Char@Data 0022                       intlevel1 0000  
                    sprintf@ap 0043               ___lwmod@dividend 0022                ??_UART_TxString 0076  
                    stringcode 080A                    _UART_TxChar 07F4             __end_of_update_bpm 06C9  
           LCD_PrintDeciC@dC10 0028                    ??_vfpfcnvrt 0031                LCD_Init@I2C_Add 0026  
                     sprintf@f 0044                       sprintf@s 003E                ___lwmod@divisor 0020  
              ___lwmod@counter 0074                       stringdir 080A                       stringtab 0800  
            LCD_Set_Cursor@COL 0024              LCD_Set_Cursor@ROW 0025  
